

Microchip MPLAB XC8 Assembler V2.36 build 20220127204148 
                                                                                               Tue Jun 24 13:20:09 2025

Microchip MPLAB XC8 C Compiler v2.36 (Free license) build 20220127204148 Og1 
     1                           	processor	16F17115
     2                           	pagewidth 120
     3                           	opt	flic
     4                           	psect	idataCOMMON,global,class=CODE,delta=2,noexec
     5                           	psect	cinit,global,class=CODE,merge=1,delta=2
     6                           	psect	bssCOMMON,global,class=COMMON,space=1,delta=1,noexec
     7                           	psect	dataCOMMON,global,class=COMMON,space=1,delta=1,noexec
     8                           	psect	cstackCOMMON,global,class=COMMON,space=1,delta=1,noexec
     9                           	psect	maintext,global,class=CODE,merge=1,split=1,delta=2
    10                           	psect	text1,local,class=CODE,merge=1,delta=2
    11                           	psect	text2,local,class=CODE,merge=1,delta=2
    12                           	psect	text3,local,class=CODE,merge=1,delta=2
    13                           	psect	intentry,global,class=CODE,delta=2
    14                           	psect	text5,local,class=CODE,merge=1,delta=2
    15                           	psect	config,global,abs,ovrld,class=CONFIG,space=4,delta=2,noexec
    16                           	dabs	1,0x7E,2
    17  0000                     
    18                           ; Generated 28/03/2025 GMT
    19                           ; 
    20                           ; Copyright © 2025, Microchip Technology Inc. and its subsidiaries ("Microchip")
    21                           ; All rights reserved.
    22                           ; 
    23                           ; This software is developed by Microchip Technology Inc. and its subsidiaries ("Microch
      +                          ip").
    24                           ; 
    25                           ; Redistribution and use in source and binary forms, with or without modification, are
    26                           ; permitted provided that the following conditions are met:
    27                           ; 
    28                           ;     1. Redistributions of source code must retain the above copyright notice, this lis
      +                          t of
    29                           ;        conditions and the following disclaimer.
    30                           ; 
    31                           ;     2. Redistributions in binary form must reproduce the above copyright notice, this 
      +                          list
    32                           ;        of conditions and the following disclaimer in the documentation and/or other
    33                           ;        materials provided with the distribution. Publication is not required when
    34                           ;        this file is used in an embedded application.
    35                           ; 
    36                           ;     3. Microchip's name may not be used to endorse or promote products derived from th
      +                          is
    37                           ;        software without specific prior written permission.
    38                           ; 
    39                           ; THIS SOFTWARE IS PROVIDED BY MICROCHIP "AS IS" AND ANY EXPRESS OR IMPLIED WARRANTIES,
    40                           ; INCLUDING, BUT NOT LIMITED TO, THE IMPLIED WARRANTIES OF MERCHANTABILITY AND FITNESS F
      +                          OR
    41                           ; PURPOSE ARE DISCLAIMED.  IN NO EVENT SHALL MICROCHIP BE LIABLE FOR ANY DIRECT, INDIREC
      +                          T,
    42                           ; INCIDENTAL, SPECIAL, EXEMPLARY, OR CONSEQUENTIAL DAMAGES (INCLUDING BUT NOT LIMITED TO
    43                           ; PROCUREMENT OF SUBSTITUTE GOODS OR SERVICES; LOSS OF USE, DATA OR PROFITS; OR BUSINESS
    44                           ; INTERRUPTION) HOWSOEVER CAUSED AND ON ANY THEORY OF LIABILITY, WHETHER IN CONTRACT, ST
      +                          RICT
    45                           ; LIABILITY, OR TORT (INCLUDING NEGLIGENCE OR OTHERWISE) ARISING IN ANY WAY OUT OF THE U
      +                          SE OF
    46                           ; THIS SOFTWARE, EVEN IF ADVISED OF THE POSSIBILITY OF SUCH DAMAGE.
    47                           ; 
    48                           ; 
    49                           ; Code-generator required, PIC16F17115 Definitions
    50                           ; 
    51                           ; SFR Addresses
    52  0000                     	;# 
    53  0001                     	;# 
    54  0002                     	;# 
    55  0003                     	;# 
    56  0004                     	;# 
    57  0005                     	;# 
    58  0006                     	;# 
    59  0007                     	;# 
    60  0008                     	;# 
    61  0009                     	;# 
    62  000A                     	;# 
    63  000B                     	;# 
    64  000C                     	;# 
    65  0012                     	;# 
    66  0018                     	;# 
    67  008C                     	;# 
    68  008D                     	;# 
    69  008E                     	;# 
    70  008F                     	;# 
    71  0090                     	;# 
    72  0091                     	;# 
    73  0092                     	;# 
    74  0096                     	;# 
    75  0097                     	;# 
    76  0098                     	;# 
    77  0099                     	;# 
    78  009A                     	;# 
    79  009B                     	;# 
    80  009C                     	;# 
    81  010C                     	;# 
    82  010D                     	;# 
    83  010E                     	;# 
    84  010F                     	;# 
    85  0110                     	;# 
    86  018C                     	;# 
    87  018D                     	;# 
    88  018E                     	;# 
    89  018E                     	;# 
    90  018F                     	;# 
    91  0190                     	;# 
    92  0191                     	;# 
    93  0192                     	;# 
    94  0193                     	;# 
    95  019C                     	;# 
    96  019C                     	;# 
    97  019D                     	;# 
    98  019D                     	;# 
    99  019E                     	;# 
   100  019F                     	;# 
   101  020C                     	;# 
   102  020D                     	;# 
   103  021F                     	;# 
   104  028C                     	;# 
   105  028D                     	;# 
   106  028E                     	;# 
   107  028F                     	;# 
   108  0290                     	;# 
   109  0291                     	;# 
   110  0292                     	;# 
   111  0293                     	;# 
   112  0294                     	;# 
   113  0296                     	;# 
   114  0297                     	;# 
   115  030C                     	;# 
   116  030C                     	;# 
   117  030D                     	;# 
   118  030E                     	;# 
   119  030F                     	;# 
   120  030F                     	;# 
   121  0310                     	;# 
   122  0310                     	;# 
   123  0311                     	;# 
   124  0311                     	;# 
   125  0312                     	;# 
   126  0312                     	;# 
   127  0313                     	;# 
   128  0314                     	;# 
   129  0315                     	;# 
   130  0315                     	;# 
   131  0316                     	;# 
   132  0316                     	;# 
   133  0317                     	;# 
   134  0317                     	;# 
   135  038C                     	;# 
   136  038C                     	;# 
   137  038D                     	;# 
   138  038D                     	;# 
   139  038E                     	;# 
   140  038F                     	;# 
   141  0390                     	;# 
   142  0390                     	;# 
   143  0391                     	;# 
   144  0392                     	;# 
   145  0392                     	;# 
   146  0393                     	;# 
   147  0393                     	;# 
   148  0394                     	;# 
   149  0395                     	;# 
   150  0396                     	;# 
   151  0396                     	;# 
   152  0397                     	;# 
   153  040C                     	;# 
   154  040C                     	;# 
   155  040D                     	;# 
   156  040E                     	;# 
   157  040F                     	;# 
   158  0410                     	;# 
   159  0410                     	;# 
   160  0411                     	;# 
   161  0412                     	;# 
   162  0413                     	;# 
   163  041F                     	;# 
   164  048C                     	;# 
   165  048D                     	;# 
   166  048E                     	;# 
   167  048F                     	;# 
   168  048F                     	;# 
   169  0490                     	;# 
   170  0491                     	;# 
   171  0492                     	;# 
   172  0493                     	;# 
   173  0494                     	;# 
   174  0495                     	;# 
   175  0496                     	;# 
   176  0497                     	;# 
   177  0497                     	;# 
   178  0498                     	;# 
   179  0499                     	;# 
   180  0499                     	;# 
   181  049A                     	;# 
   182  049E                     	;# 
   183  049F                     	;# 
   184  050C                     	;# 
   185  050D                     	;# 
   186  050E                     	;# 
   187  050F                     	;# 
   188  050F                     	;# 
   189  0510                     	;# 
   190  0511                     	;# 
   191  0512                     	;# 
   192  0513                     	;# 
   193  0514                     	;# 
   194  0515                     	;# 
   195  0516                     	;# 
   196  0517                     	;# 
   197  0517                     	;# 
   198  0518                     	;# 
   199  0519                     	;# 
   200  0519                     	;# 
   201  051A                     	;# 
   202  058C                     	;# 
   203  058C                     	;# 
   204  058D                     	;# 
   205  058E                     	;# 
   206  058F                     	;# 
   207  058F                     	;# 
   208  0590                     	;# 
   209  0591                     	;# 
   210  0592                     	;# 
   211  0593                     	;# 
   212  060C                     	;# 
   213  060C                     	;# 
   214  060D                     	;# 
   215  060D                     	;# 
   216  060E                     	;# 
   217  060F                     	;# 
   218  0610                     	;# 
   219  0611                     	;# 
   220  0612                     	;# 
   221  0613                     	;# 
   222  0614                     	;# 
   223  068C                     	;# 
   224  068D                     	;# 
   225  068E                     	;# 
   226  068F                     	;# 
   227  0690                     	;# 
   228  0691                     	;# 
   229  0692                     	;# 
   230  0693                     	;# 
   231  0694                     	;# 
   232  0695                     	;# 
   233  0696                     	;# 
   234  0697                     	;# 
   235  070C                     	;# 
   236  070D                     	;# 
   237  070E                     	;# 
   238  070E                     	;# 
   239  070F                     	;# 
   240  0710                     	;# 
   241  0711                     	;# 
   242  0712                     	;# 
   243  0716                     	;# 
   244  0717                     	;# 
   245  0718                     	;# 
   246  0718                     	;# 
   247  0719                     	;# 
   248  071A                     	;# 
   249  071B                     	;# 
   250  071C                     	;# 
   251  078C                     	;# 
   252  078D                     	;# 
   253  078E                     	;# 
   254  078F                     	;# 
   255  0790                     	;# 
   256  0791                     	;# 
   257  0792                     	;# 
   258  0796                     	;# 
   259  0797                     	;# 
   260  0798                     	;# 
   261  0799                     	;# 
   262  079A                     	;# 
   263  079B                     	;# 
   264  079C                     	;# 
   265  080C                     	;# 
   266  080D                     	;# 
   267  080E                     	;# 
   268  080F                     	;# 
   269  0810                     	;# 
   270  0811                     	;# 
   271  0812                     	;# 
   272  0813                     	;# 
   273  081F                     	;# 
   274  081F                     	;# 
   275  088C                     	;# 
   276  088D                     	;# 
   277  0890                     	;# 
   278  0891                     	;# 
   279  090C                     	;# 
   280  090D                     	;# 
   281  090E                     	;# 
   282  090F                     	;# 
   283  0910                     	;# 
   284  0911                     	;# 
   285  0912                     	;# 
   286  1C8C                     	;# 
   287  1C8C                     	;# 
   288  1C8D                     	;# 
   289  1C8E                     	;# 
   290  1C8E                     	;# 
   291  1C8F                     	;# 
   292  1C90                     	;# 
   293  1C91                     	;# 
   294  1C92                     	;# 
   295  1C92                     	;# 
   296  1C93                     	;# 
   297  1C95                     	;# 
   298  1C95                     	;# 
   299  1C96                     	;# 
   300  1C98                     	;# 
   301  1C99                     	;# 
   302  1C9A                     	;# 
   303  1C9A                     	;# 
   304  1C9B                     	;# 
   305  1C9C                     	;# 
   306  1C9D                     	;# 
   307  1C9E                     	;# 
   308  1C9E                     	;# 
   309  1C9E                     	;# 
   310  1C9E                     	;# 
   311  1C9E                     	;# 
   312  1C9E                     	;# 
   313  1C9E                     	;# 
   314  1C9F                     	;# 
   315  1C9F                     	;# 
   316  1C9F                     	;# 
   317  1C9F                     	;# 
   318  1CA0                     	;# 
   319  1CA0                     	;# 
   320  1CA0                     	;# 
   321  1CA0                     	;# 
   322  1CA1                     	;# 
   323  1CA1                     	;# 
   324  1CA1                     	;# 
   325  1CA1                     	;# 
   326  1CA2                     	;# 
   327  1CA3                     	;# 
   328  1CA4                     	;# 
   329  1D0C                     	;# 
   330  1D0C                     	;# 
   331  1D0D                     	;# 
   332  1D0E                     	;# 
   333  1D0E                     	;# 
   334  1D0F                     	;# 
   335  1D10                     	;# 
   336  1D10                     	;# 
   337  1D11                     	;# 
   338  1D12                     	;# 
   339  1D12                     	;# 
   340  1D13                     	;# 
   341  1D14                     	;# 
   342  1D14                     	;# 
   343  1D15                     	;# 
   344  1D16                     	;# 
   345  1D16                     	;# 
   346  1D17                     	;# 
   347  1D18                     	;# 
   348  1D19                     	;# 
   349  1D1A                     	;# 
   350  1D1B                     	;# 
   351  1D1B                     	;# 
   352  1D1C                     	;# 
   353  1D1D                     	;# 
   354  1D1D                     	;# 
   355  1D1E                     	;# 
   356  1D1F                     	;# 
   357  1D20                     	;# 
   358  1D21                     	;# 
   359  1D21                     	;# 
   360  1D22                     	;# 
   361  1D23                     	;# 
   362  1D24                     	;# 
   363  1D24                     	;# 
   364  1D25                     	;# 
   365  1D26                     	;# 
   366  1D27                     	;# 
   367  1D28                     	;# 
   368  1D29                     	;# 
   369  1D2A                     	;# 
   370  1D2B                     	;# 
   371  1D2C                     	;# 
   372  1D2D                     	;# 
   373  1D2E                     	;# 
   374  1D8C                     	;# 
   375  1D8D                     	;# 
   376  1D8E                     	;# 
   377  1D90                     	;# 
   378  1D91                     	;# 
   379  1E0C                     	;# 
   380  1E0D                     	;# 
   381  1E0E                     	;# 
   382  1E0F                     	;# 
   383  1E10                     	;# 
   384  1E11                     	;# 
   385  1E12                     	;# 
   386  1E19                     	;# 
   387  1E1A                     	;# 
   388  1E1E                     	;# 
   389  1E1F                     	;# 
   390  1E24                     	;# 
   391  1E25                     	;# 
   392  1E26                     	;# 
   393  1E27                     	;# 
   394  1E39                     	;# 
   395  1E3D                     	;# 
   396  1E3E                     	;# 
   397  1E3F                     	;# 
   398  1E40                     	;# 
   399  1E41                     	;# 
   400  1E41                     	;# 
   401  1E42                     	;# 
   402  1E42                     	;# 
   403  1E43                     	;# 
   404  1E43                     	;# 
   405  1E44                     	;# 
   406  1E44                     	;# 
   407  1E47                     	;# 
   408  1E48                     	;# 
   409  1E49                     	;# 
   410  1E4A                     	;# 
   411  1E4B                     	;# 
   412  1E4C                     	;# 
   413  1E50                     	;# 
   414  1E53                     	;# 
   415  1E8C                     	;# 
   416  1E8D                     	;# 
   417  1E8E                     	;# 
   418  1E8F                     	;# 
   419  1E90                     	;# 
   420  1E91                     	;# 
   421  1E92                     	;# 
   422  1E93                     	;# 
   423  1EE1                     	;# 
   424  1EE2                     	;# 
   425  1F0C                     	;# 
   426  1F0D                     	;# 
   427  1F0E                     	;# 
   428  1FE4                     	;# 
   429  1FE5                     	;# 
   430  1FE6                     	;# 
   431  1FE7                     	;# 
   432  1FE8                     	;# 
   433  1FE8                     	;# 
   434  1FE9                     	;# 
   435  1FEA                     	;# 
   436  1FEA                     	;# 
   437  1FEB                     	;# 
   438  1FED                     	;# 
   439  1FEE                     	;# 
   440  1FEF                     	;# 
   441  0000                     	;# 
   442  0001                     	;# 
   443  0002                     	;# 
   444  0003                     	;# 
   445  0004                     	;# 
   446  0005                     	;# 
   447  0006                     	;# 
   448  0007                     	;# 
   449  0008                     	;# 
   450  0009                     	;# 
   451  000A                     	;# 
   452  000B                     	;# 
   453  000C                     	;# 
   454  0012                     	;# 
   455  0018                     	;# 
   456  008C                     	;# 
   457  008D                     	;# 
   458  008E                     	;# 
   459  008F                     	;# 
   460  0090                     	;# 
   461  0091                     	;# 
   462  0092                     	;# 
   463  0096                     	;# 
   464  0097                     	;# 
   465  0098                     	;# 
   466  0099                     	;# 
   467  009A                     	;# 
   468  009B                     	;# 
   469  009C                     	;# 
   470  010C                     	;# 
   471  010D                     	;# 
   472  010E                     	;# 
   473  010F                     	;# 
   474  0110                     	;# 
   475  018C                     	;# 
   476  018D                     	;# 
   477  018E                     	;# 
   478  018E                     	;# 
   479  018F                     	;# 
   480  0190                     	;# 
   481  0191                     	;# 
   482  0192                     	;# 
   483  0193                     	;# 
   484  019C                     	;# 
   485  019C                     	;# 
   486  019D                     	;# 
   487  019D                     	;# 
   488  019E                     	;# 
   489  019F                     	;# 
   490  020C                     	;# 
   491  020D                     	;# 
   492  021F                     	;# 
   493  028C                     	;# 
   494  028D                     	;# 
   495  028E                     	;# 
   496  028F                     	;# 
   497  0290                     	;# 
   498  0291                     	;# 
   499  0292                     	;# 
   500  0293                     	;# 
   501  0294                     	;# 
   502  0296                     	;# 
   503  0297                     	;# 
   504  030C                     	;# 
   505  030C                     	;# 
   506  030D                     	;# 
   507  030E                     	;# 
   508  030F                     	;# 
   509  030F                     	;# 
   510  0310                     	;# 
   511  0310                     	;# 
   512  0311                     	;# 
   513  0311                     	;# 
   514  0312                     	;# 
   515  0312                     	;# 
   516  0313                     	;# 
   517  0314                     	;# 
   518  0315                     	;# 
   519  0315                     	;# 
   520  0316                     	;# 
   521  0316                     	;# 
   522  0317                     	;# 
   523  0317                     	;# 
   524  038C                     	;# 
   525  038C                     	;# 
   526  038D                     	;# 
   527  038D                     	;# 
   528  038E                     	;# 
   529  038F                     	;# 
   530  0390                     	;# 
   531  0390                     	;# 
   532  0391                     	;# 
   533  0392                     	;# 
   534  0392                     	;# 
   535  0393                     	;# 
   536  0393                     	;# 
   537  0394                     	;# 
   538  0395                     	;# 
   539  0396                     	;# 
   540  0396                     	;# 
   541  0397                     	;# 
   542  040C                     	;# 
   543  040C                     	;# 
   544  040D                     	;# 
   545  040E                     	;# 
   546  040F                     	;# 
   547  0410                     	;# 
   548  0410                     	;# 
   549  0411                     	;# 
   550  0412                     	;# 
   551  0413                     	;# 
   552  041F                     	;# 
   553  048C                     	;# 
   554  048D                     	;# 
   555  048E                     	;# 
   556  048F                     	;# 
   557  048F                     	;# 
   558  0490                     	;# 
   559  0491                     	;# 
   560  0492                     	;# 
   561  0493                     	;# 
   562  0494                     	;# 
   563  0495                     	;# 
   564  0496                     	;# 
   565  0497                     	;# 
   566  0497                     	;# 
   567  0498                     	;# 
   568  0499                     	;# 
   569  0499                     	;# 
   570  049A                     	;# 
   571  049E                     	;# 
   572  049F                     	;# 
   573  050C                     	;# 
   574  050D                     	;# 
   575  050E                     	;# 
   576  050F                     	;# 
   577  050F                     	;# 
   578  0510                     	;# 
   579  0511                     	;# 
   580  0512                     	;# 
   581  0513                     	;# 
   582  0514                     	;# 
   583  0515                     	;# 
   584  0516                     	;# 
   585  0517                     	;# 
   586  0517                     	;# 
   587  0518                     	;# 
   588  0519                     	;# 
   589  0519                     	;# 
   590  051A                     	;# 
   591  058C                     	;# 
   592  058C                     	;# 
   593  058D                     	;# 
   594  058E                     	;# 
   595  058F                     	;# 
   596  058F                     	;# 
   597  0590                     	;# 
   598  0591                     	;# 
   599  0592                     	;# 
   600  0593                     	;# 
   601  060C                     	;# 
   602  060C                     	;# 
   603  060D                     	;# 
   604  060D                     	;# 
   605  060E                     	;# 
   606  060F                     	;# 
   607  0610                     	;# 
   608  0611                     	;# 
   609  0612                     	;# 
   610  0613                     	;# 
   611  0614                     	;# 
   612  068C                     	;# 
   613  068D                     	;# 
   614  068E                     	;# 
   615  068F                     	;# 
   616  0690                     	;# 
   617  0691                     	;# 
   618  0692                     	;# 
   619  0693                     	;# 
   620  0694                     	;# 
   621  0695                     	;# 
   622  0696                     	;# 
   623  0697                     	;# 
   624  070C                     	;# 
   625  070D                     	;# 
   626  070E                     	;# 
   627  070E                     	;# 
   628  070F                     	;# 
   629  0710                     	;# 
   630  0711                     	;# 
   631  0712                     	;# 
   632  0716                     	;# 
   633  0717                     	;# 
   634  0718                     	;# 
   635  0718                     	;# 
   636  0719                     	;# 
   637  071A                     	;# 
   638  071B                     	;# 
   639  071C                     	;# 
   640  078C                     	;# 
   641  078D                     	;# 
   642  078E                     	;# 
   643  078F                     	;# 
   644  0790                     	;# 
   645  0791                     	;# 
   646  0792                     	;# 
   647  0796                     	;# 
   648  0797                     	;# 
   649  0798                     	;# 
   650  0799                     	;# 
   651  079A                     	;# 
   652  079B                     	;# 
   653  079C                     	;# 
   654  080C                     	;# 
   655  080D                     	;# 
   656  080E                     	;# 
   657  080F                     	;# 
   658  0810                     	;# 
   659  0811                     	;# 
   660  0812                     	;# 
   661  0813                     	;# 
   662  081F                     	;# 
   663  081F                     	;# 
   664  088C                     	;# 
   665  088D                     	;# 
   666  0890                     	;# 
   667  0891                     	;# 
   668  090C                     	;# 
   669  090D                     	;# 
   670  090E                     	;# 
   671  090F                     	;# 
   672  0910                     	;# 
   673  0911                     	;# 
   674  0912                     	;# 
   675  1C8C                     	;# 
   676  1C8C                     	;# 
   677  1C8D                     	;# 
   678  1C8E                     	;# 
   679  1C8E                     	;# 
   680  1C8F                     	;# 
   681  1C90                     	;# 
   682  1C91                     	;# 
   683  1C92                     	;# 
   684  1C92                     	;# 
   685  1C93                     	;# 
   686  1C95                     	;# 
   687  1C95                     	;# 
   688  1C96                     	;# 
   689  1C98                     	;# 
   690  1C99                     	;# 
   691  1C9A                     	;# 
   692  1C9A                     	;# 
   693  1C9B                     	;# 
   694  1C9C                     	;# 
   695  1C9D                     	;# 
   696  1C9E                     	;# 
   697  1C9E                     	;# 
   698  1C9E                     	;# 
   699  1C9E                     	;# 
   700  1C9E                     	;# 
   701  1C9E                     	;# 
   702  1C9E                     	;# 
   703  1C9F                     	;# 
   704  1C9F                     	;# 
   705  1C9F                     	;# 
   706  1C9F                     	;# 
   707  1CA0                     	;# 
   708  1CA0                     	;# 
   709  1CA0                     	;# 
   710  1CA0                     	;# 
   711  1CA1                     	;# 
   712  1CA1                     	;# 
   713  1CA1                     	;# 
   714  1CA1                     	;# 
   715  1CA2                     	;# 
   716  1CA3                     	;# 
   717  1CA4                     	;# 
   718  1D0C                     	;# 
   719  1D0C                     	;# 
   720  1D0D                     	;# 
   721  1D0E                     	;# 
   722  1D0E                     	;# 
   723  1D0F                     	;# 
   724  1D10                     	;# 
   725  1D10                     	;# 
   726  1D11                     	;# 
   727  1D12                     	;# 
   728  1D12                     	;# 
   729  1D13                     	;# 
   730  1D14                     	;# 
   731  1D14                     	;# 
   732  1D15                     	;# 
   733  1D16                     	;# 
   734  1D16                     	;# 
   735  1D17                     	;# 
   736  1D18                     	;# 
   737  1D19                     	;# 
   738  1D1A                     	;# 
   739  1D1B                     	;# 
   740  1D1B                     	;# 
   741  1D1C                     	;# 
   742  1D1D                     	;# 
   743  1D1D                     	;# 
   744  1D1E                     	;# 
   745  1D1F                     	;# 
   746  1D20                     	;# 
   747  1D21                     	;# 
   748  1D21                     	;# 
   749  1D22                     	;# 
   750  1D23                     	;# 
   751  1D24                     	;# 
   752  1D24                     	;# 
   753  1D25                     	;# 
   754  1D26                     	;# 
   755  1D27                     	;# 
   756  1D28                     	;# 
   757  1D29                     	;# 
   758  1D2A                     	;# 
   759  1D2B                     	;# 
   760  1D2C                     	;# 
   761  1D2D                     	;# 
   762  1D2E                     	;# 
   763  1D8C                     	;# 
   764  1D8D                     	;# 
   765  1D8E                     	;# 
   766  1D90                     	;# 
   767  1D91                     	;# 
   768  1E0C                     	;# 
   769  1E0D                     	;# 
   770  1E0E                     	;# 
   771  1E0F                     	;# 
   772  1E10                     	;# 
   773  1E11                     	;# 
   774  1E12                     	;# 
   775  1E19                     	;# 
   776  1E1A                     	;# 
   777  1E1E                     	;# 
   778  1E1F                     	;# 
   779  1E24                     	;# 
   780  1E25                     	;# 
   781  1E26                     	;# 
   782  1E27                     	;# 
   783  1E39                     	;# 
   784  1E3D                     	;# 
   785  1E3E                     	;# 
   786  1E3F                     	;# 
   787  1E40                     	;# 
   788  1E41                     	;# 
   789  1E41                     	;# 
   790  1E42                     	;# 
   791  1E42                     	;# 
   792  1E43                     	;# 
   793  1E43                     	;# 
   794  1E44                     	;# 
   795  1E44                     	;# 
   796  1E47                     	;# 
   797  1E48                     	;# 
   798  1E49                     	;# 
   799  1E4A                     	;# 
   800  1E4B                     	;# 
   801  1E4C                     	;# 
   802  1E50                     	;# 
   803  1E53                     	;# 
   804  1E8C                     	;# 
   805  1E8D                     	;# 
   806  1E8E                     	;# 
   807  1E8F                     	;# 
   808  1E90                     	;# 
   809  1E91                     	;# 
   810  1E92                     	;# 
   811  1E93                     	;# 
   812  1EE1                     	;# 
   813  1EE2                     	;# 
   814  1F0C                     	;# 
   815  1F0D                     	;# 
   816  1F0E                     	;# 
   817  1FE4                     	;# 
   818  1FE5                     	;# 
   819  1FE6                     	;# 
   820  1FE7                     	;# 
   821  1FE8                     	;# 
   822  1FE8                     	;# 
   823  1FE9                     	;# 
   824  1FEA                     	;# 
   825  1FEA                     	;# 
   826  1FEB                     	;# 
   827  1FED                     	;# 
   828  1FEE                     	;# 
   829  1FEF                     	;# 
   830  0000                     	;# 
   831  0001                     	;# 
   832  0002                     	;# 
   833  0003                     	;# 
   834  0004                     	;# 
   835  0005                     	;# 
   836  0006                     	;# 
   837  0007                     	;# 
   838  0008                     	;# 
   839  0009                     	;# 
   840  000A                     	;# 
   841  000B                     	;# 
   842  000C                     	;# 
   843  0012                     	;# 
   844  0018                     	;# 
   845  008C                     	;# 
   846  008D                     	;# 
   847  008E                     	;# 
   848  008F                     	;# 
   849  0090                     	;# 
   850  0091                     	;# 
   851  0092                     	;# 
   852  0096                     	;# 
   853  0097                     	;# 
   854  0098                     	;# 
   855  0099                     	;# 
   856  009A                     	;# 
   857  009B                     	;# 
   858  009C                     	;# 
   859  010C                     	;# 
   860  010D                     	;# 
   861  010E                     	;# 
   862  010F                     	;# 
   863  0110                     	;# 
   864  018C                     	;# 
   865  018D                     	;# 
   866  018E                     	;# 
   867  018E                     	;# 
   868  018F                     	;# 
   869  0190                     	;# 
   870  0191                     	;# 
   871  0192                     	;# 
   872  0193                     	;# 
   873  019C                     	;# 
   874  019C                     	;# 
   875  019D                     	;# 
   876  019D                     	;# 
   877  019E                     	;# 
   878  019F                     	;# 
   879  020C                     	;# 
   880  020D                     	;# 
   881  021F                     	;# 
   882  028C                     	;# 
   883  028D                     	;# 
   884  028E                     	;# 
   885  028F                     	;# 
   886  0290                     	;# 
   887  0291                     	;# 
   888  0292                     	;# 
   889  0293                     	;# 
   890  0294                     	;# 
   891  0296                     	;# 
   892  0297                     	;# 
   893  030C                     	;# 
   894  030C                     	;# 
   895  030D                     	;# 
   896  030E                     	;# 
   897  030F                     	;# 
   898  030F                     	;# 
   899  0310                     	;# 
   900  0310                     	;# 
   901  0311                     	;# 
   902  0311                     	;# 
   903  0312                     	;# 
   904  0312                     	;# 
   905  0313                     	;# 
   906  0314                     	;# 
   907  0315                     	;# 
   908  0315                     	;# 
   909  0316                     	;# 
   910  0316                     	;# 
   911  0317                     	;# 
   912  0317                     	;# 
   913  038C                     	;# 
   914  038C                     	;# 
   915  038D                     	;# 
   916  038D                     	;# 
   917  038E                     	;# 
   918  038F                     	;# 
   919  0390                     	;# 
   920  0390                     	;# 
   921  0391                     	;# 
   922  0392                     	;# 
   923  0392                     	;# 
   924  0393                     	;# 
   925  0393                     	;# 
   926  0394                     	;# 
   927  0395                     	;# 
   928  0396                     	;# 
   929  0396                     	;# 
   930  0397                     	;# 
   931  040C                     	;# 
   932  040C                     	;# 
   933  040D                     	;# 
   934  040E                     	;# 
   935  040F                     	;# 
   936  0410                     	;# 
   937  0410                     	;# 
   938  0411                     	;# 
   939  0412                     	;# 
   940  0413                     	;# 
   941  041F                     	;# 
   942  048C                     	;# 
   943  048D                     	;# 
   944  048E                     	;# 
   945  048F                     	;# 
   946  048F                     	;# 
   947  0490                     	;# 
   948  0491                     	;# 
   949  0492                     	;# 
   950  0493                     	;# 
   951  0494                     	;# 
   952  0495                     	;# 
   953  0496                     	;# 
   954  0497                     	;# 
   955  0497                     	;# 
   956  0498                     	;# 
   957  0499                     	;# 
   958  0499                     	;# 
   959  049A                     	;# 
   960  049E                     	;# 
   961  049F                     	;# 
   962  050C                     	;# 
   963  050D                     	;# 
   964  050E                     	;# 
   965  050F                     	;# 
   966  050F                     	;# 
   967  0510                     	;# 
   968  0511                     	;# 
   969  0512                     	;# 
   970  0513                     	;# 
   971  0514                     	;# 
   972  0515                     	;# 
   973  0516                     	;# 
   974  0517                     	;# 
   975  0517                     	;# 
   976  0518                     	;# 
   977  0519                     	;# 
   978  0519                     	;# 
   979  051A                     	;# 
   980  058C                     	;# 
   981  058C                     	;# 
   982  058D                     	;# 
   983  058E                     	;# 
   984  058F                     	;# 
   985  058F                     	;# 
   986  0590                     	;# 
   987  0591                     	;# 
   988  0592                     	;# 
   989  0593                     	;# 
   990  060C                     	;# 
   991  060C                     	;# 
   992  060D                     	;# 
   993  060D                     	;# 
   994  060E                     	;# 
   995  060F                     	;# 
   996  0610                     	;# 
   997  0611                     	;# 
   998  0612                     	;# 
   999  0613                     	;# 
  1000  0614                     	;# 
  1001  068C                     	;# 
  1002  068D                     	;# 
  1003  068E                     	;# 
  1004  068F                     	;# 
  1005  0690                     	;# 
  1006  0691                     	;# 
  1007  0692                     	;# 
  1008  0693                     	;# 
  1009  0694                     	;# 
  1010  0695                     	;# 
  1011  0696                     	;# 
  1012  0697                     	;# 
  1013  070C                     	;# 
  1014  070D                     	;# 
  1015  070E                     	;# 
  1016  070E                     	;# 
  1017  070F                     	;# 
  1018  0710                     	;# 
  1019  0711                     	;# 
  1020  0712                     	;# 
  1021  0716                     	;# 
  1022  0717                     	;# 
  1023  0718                     	;# 
  1024  0718                     	;# 
  1025  0719                     	;# 
  1026  071A                     	;# 
  1027  071B                     	;# 
  1028  071C                     	;# 
  1029  078C                     	;# 
  1030  078D                     	;# 
  1031  078E                     	;# 
  1032  078F                     	;# 
  1033  0790                     	;# 
  1034  0791                     	;# 
  1035  0792                     	;# 
  1036  0796                     	;# 
  1037  0797                     	;# 
  1038  0798                     	;# 
  1039  0799                     	;# 
  1040  079A                     	;# 
  1041  079B                     	;# 
  1042  079C                     	;# 
  1043  080C                     	;# 
  1044  080D                     	;# 
  1045  080E                     	;# 
  1046  080F                     	;# 
  1047  0810                     	;# 
  1048  0811                     	;# 
  1049  0812                     	;# 
  1050  0813                     	;# 
  1051  081F                     	;# 
  1052  081F                     	;# 
  1053  088C                     	;# 
  1054  088D                     	;# 
  1055  0890                     	;# 
  1056  0891                     	;# 
  1057  090C                     	;# 
  1058  090D                     	;# 
  1059  090E                     	;# 
  1060  090F                     	;# 
  1061  0910                     	;# 
  1062  0911                     	;# 
  1063  0912                     	;# 
  1064  1C8C                     	;# 
  1065  1C8C                     	;# 
  1066  1C8D                     	;# 
  1067  1C8E                     	;# 
  1068  1C8E                     	;# 
  1069  1C8F                     	;# 
  1070  1C90                     	;# 
  1071  1C91                     	;# 
  1072  1C92                     	;# 
  1073  1C92                     	;# 
  1074  1C93                     	;# 
  1075  1C95                     	;# 
  1076  1C95                     	;# 
  1077  1C96                     	;# 
  1078  1C98                     	;# 
  1079  1C99                     	;# 
  1080  1C9A                     	;# 
  1081  1C9A                     	;# 
  1082  1C9B                     	;# 
  1083  1C9C                     	;# 
  1084  1C9D                     	;# 
  1085  1C9E                     	;# 
  1086  1C9E                     	;# 
  1087  1C9E                     	;# 
  1088  1C9E                     	;# 
  1089  1C9E                     	;# 
  1090  1C9E                     	;# 
  1091  1C9E                     	;# 
  1092  1C9F                     	;# 
  1093  1C9F                     	;# 
  1094  1C9F                     	;# 
  1095  1C9F                     	;# 
  1096  1CA0                     	;# 
  1097  1CA0                     	;# 
  1098  1CA0                     	;# 
  1099  1CA0                     	;# 
  1100  1CA1                     	;# 
  1101  1CA1                     	;# 
  1102  1CA1                     	;# 
  1103  1CA1                     	;# 
  1104  1CA2                     	;# 
  1105  1CA3                     	;# 
  1106  1CA4                     	;# 
  1107  1D0C                     	;# 
  1108  1D0C                     	;# 
  1109  1D0D                     	;# 
  1110  1D0E                     	;# 
  1111  1D0E                     	;# 
  1112  1D0F                     	;# 
  1113  1D10                     	;# 
  1114  1D10                     	;# 
  1115  1D11                     	;# 
  1116  1D12                     	;# 
  1117  1D12                     	;# 
  1118  1D13                     	;# 
  1119  1D14                     	;# 
  1120  1D14                     	;# 
  1121  1D15                     	;# 
  1122  1D16                     	;# 
  1123  1D16                     	;# 
  1124  1D17                     	;# 
  1125  1D18                     	;# 
  1126  1D19                     	;# 
  1127  1D1A                     	;# 
  1128  1D1B                     	;# 
  1129  1D1B                     	;# 
  1130  1D1C                     	;# 
  1131  1D1D                     	;# 
  1132  1D1D                     	;# 
  1133  1D1E                     	;# 
  1134  1D1F                     	;# 
  1135  1D20                     	;# 
  1136  1D21                     	;# 
  1137  1D21                     	;# 
  1138  1D22                     	;# 
  1139  1D23                     	;# 
  1140  1D24                     	;# 
  1141  1D24                     	;# 
  1142  1D25                     	;# 
  1143  1D26                     	;# 
  1144  1D27                     	;# 
  1145  1D28                     	;# 
  1146  1D29                     	;# 
  1147  1D2A                     	;# 
  1148  1D2B                     	;# 
  1149  1D2C                     	;# 
  1150  1D2D                     	;# 
  1151  1D2E                     	;# 
  1152  1D8C                     	;# 
  1153  1D8D                     	;# 
  1154  1D8E                     	;# 
  1155  1D90                     	;# 
  1156  1D91                     	;# 
  1157  1E0C                     	;# 
  1158  1E0D                     	;# 
  1159  1E0E                     	;# 
  1160  1E0F                     	;# 
  1161  1E10                     	;# 
  1162  1E11                     	;# 
  1163  1E12                     	;# 
  1164  1E19                     	;# 
  1165  1E1A                     	;# 
  1166  1E1E                     	;# 
  1167  1E1F                     	;# 
  1168  1E24                     	;# 
  1169  1E25                     	;# 
  1170  1E26                     	;# 
  1171  1E27                     	;# 
  1172  1E39                     	;# 
  1173  1E3D                     	;# 
  1174  1E3E                     	;# 
  1175  1E3F                     	;# 
  1176  1E40                     	;# 
  1177  1E41                     	;# 
  1178  1E41                     	;# 
  1179  1E42                     	;# 
  1180  1E42                     	;# 
  1181  1E43                     	;# 
  1182  1E43                     	;# 
  1183  1E44                     	;# 
  1184  1E44                     	;# 
  1185  1E47                     	;# 
  1186  1E48                     	;# 
  1187  1E49                     	;# 
  1188  1E4A                     	;# 
  1189  1E4B                     	;# 
  1190  1E4C                     	;# 
  1191  1E50                     	;# 
  1192  1E53                     	;# 
  1193  1E8C                     	;# 
  1194  1E8D                     	;# 
  1195  1E8E                     	;# 
  1196  1E8F                     	;# 
  1197  1E90                     	;# 
  1198  1E91                     	;# 
  1199  1E92                     	;# 
  1200  1E93                     	;# 
  1201  1EE1                     	;# 
  1202  1EE2                     	;# 
  1203  1F0C                     	;# 
  1204  1F0D                     	;# 
  1205  1F0E                     	;# 
  1206  1FE4                     	;# 
  1207  1FE5                     	;# 
  1208  1FE6                     	;# 
  1209  1FE7                     	;# 
  1210  1FE8                     	;# 
  1211  1FE8                     	;# 
  1212  1FE9                     	;# 
  1213  1FEA                     	;# 
  1214  1FEA                     	;# 
  1215  1FEB                     	;# 
  1216  1FED                     	;# 
  1217  1FEE                     	;# 
  1218  1FEF                     	;# 
  1219  0000                     	;# 
  1220  0001                     	;# 
  1221  0002                     	;# 
  1222  0003                     	;# 
  1223  0004                     	;# 
  1224  0005                     	;# 
  1225  0006                     	;# 
  1226  0007                     	;# 
  1227  0008                     	;# 
  1228  0009                     	;# 
  1229  000A                     	;# 
  1230  000B                     	;# 
  1231  000C                     	;# 
  1232  0012                     	;# 
  1233  0018                     	;# 
  1234  008C                     	;# 
  1235  008D                     	;# 
  1236  008E                     	;# 
  1237  008F                     	;# 
  1238  0090                     	;# 
  1239  0091                     	;# 
  1240  0092                     	;# 
  1241  0096                     	;# 
  1242  0097                     	;# 
  1243  0098                     	;# 
  1244  0099                     	;# 
  1245  009A                     	;# 
  1246  009B                     	;# 
  1247  009C                     	;# 
  1248  010C                     	;# 
  1249  010D                     	;# 
  1250  010E                     	;# 
  1251  010F                     	;# 
  1252  0110                     	;# 
  1253  018C                     	;# 
  1254  018D                     	;# 
  1255  018E                     	;# 
  1256  018E                     	;# 
  1257  018F                     	;# 
  1258  0190                     	;# 
  1259  0191                     	;# 
  1260  0192                     	;# 
  1261  0193                     	;# 
  1262  019C                     	;# 
  1263  019C                     	;# 
  1264  019D                     	;# 
  1265  019D                     	;# 
  1266  019E                     	;# 
  1267  019F                     	;# 
  1268  020C                     	;# 
  1269  020D                     	;# 
  1270  021F                     	;# 
  1271  028C                     	;# 
  1272  028D                     	;# 
  1273  028E                     	;# 
  1274  028F                     	;# 
  1275  0290                     	;# 
  1276  0291                     	;# 
  1277  0292                     	;# 
  1278  0293                     	;# 
  1279  0294                     	;# 
  1280  0296                     	;# 
  1281  0297                     	;# 
  1282  030C                     	;# 
  1283  030C                     	;# 
  1284  030D                     	;# 
  1285  030E                     	;# 
  1286  030F                     	;# 
  1287  030F                     	;# 
  1288  0310                     	;# 
  1289  0310                     	;# 
  1290  0311                     	;# 
  1291  0311                     	;# 
  1292  0312                     	;# 
  1293  0312                     	;# 
  1294  0313                     	;# 
  1295  0314                     	;# 
  1296  0315                     	;# 
  1297  0315                     	;# 
  1298  0316                     	;# 
  1299  0316                     	;# 
  1300  0317                     	;# 
  1301  0317                     	;# 
  1302  038C                     	;# 
  1303  038C                     	;# 
  1304  038D                     	;# 
  1305  038D                     	;# 
  1306  038E                     	;# 
  1307  038F                     	;# 
  1308  0390                     	;# 
  1309  0390                     	;# 
  1310  0391                     	;# 
  1311  0392                     	;# 
  1312  0392                     	;# 
  1313  0393                     	;# 
  1314  0393                     	;# 
  1315  0394                     	;# 
  1316  0395                     	;# 
  1317  0396                     	;# 
  1318  0396                     	;# 
  1319  0397                     	;# 
  1320  040C                     	;# 
  1321  040C                     	;# 
  1322  040D                     	;# 
  1323  040E                     	;# 
  1324  040F                     	;# 
  1325  0410                     	;# 
  1326  0410                     	;# 
  1327  0411                     	;# 
  1328  0412                     	;# 
  1329  0413                     	;# 
  1330  041F                     	;# 
  1331  048C                     	;# 
  1332  048D                     	;# 
  1333  048E                     	;# 
  1334  048F                     	;# 
  1335  048F                     	;# 
  1336  0490                     	;# 
  1337  0491                     	;# 
  1338  0492                     	;# 
  1339  0493                     	;# 
  1340  0494                     	;# 
  1341  0495                     	;# 
  1342  0496                     	;# 
  1343  0497                     	;# 
  1344  0497                     	;# 
  1345  0498                     	;# 
  1346  0499                     	;# 
  1347  0499                     	;# 
  1348  049A                     	;# 
  1349  049E                     	;# 
  1350  049F                     	;# 
  1351  050C                     	;# 
  1352  050D                     	;# 
  1353  050E                     	;# 
  1354  050F                     	;# 
  1355  050F                     	;# 
  1356  0510                     	;# 
  1357  0511                     	;# 
  1358  0512                     	;# 
  1359  0513                     	;# 
  1360  0514                     	;# 
  1361  0515                     	;# 
  1362  0516                     	;# 
  1363  0517                     	;# 
  1364  0517                     	;# 
  1365  0518                     	;# 
  1366  0519                     	;# 
  1367  0519                     	;# 
  1368  051A                     	;# 
  1369  058C                     	;# 
  1370  058C                     	;# 
  1371  058D                     	;# 
  1372  058E                     	;# 
  1373  058F                     	;# 
  1374  058F                     	;# 
  1375  0590                     	;# 
  1376  0591                     	;# 
  1377  0592                     	;# 
  1378  0593                     	;# 
  1379  060C                     	;# 
  1380  060C                     	;# 
  1381  060D                     	;# 
  1382  060D                     	;# 
  1383  060E                     	;# 
  1384  060F                     	;# 
  1385  0610                     	;# 
  1386  0611                     	;# 
  1387  0612                     	;# 
  1388  0613                     	;# 
  1389  0614                     	;# 
  1390  068C                     	;# 
  1391  068D                     	;# 
  1392  068E                     	;# 
  1393  068F                     	;# 
  1394  0690                     	;# 
  1395  0691                     	;# 
  1396  0692                     	;# 
  1397  0693                     	;# 
  1398  0694                     	;# 
  1399  0695                     	;# 
  1400  0696                     	;# 
  1401  0697                     	;# 
  1402  070C                     	;# 
  1403  070D                     	;# 
  1404  070E                     	;# 
  1405  070E                     	;# 
  1406  070F                     	;# 
  1407  0710                     	;# 
  1408  0711                     	;# 
  1409  0712                     	;# 
  1410  0716                     	;# 
  1411  0717                     	;# 
  1412  0718                     	;# 
  1413  0718                     	;# 
  1414  0719                     	;# 
  1415  071A                     	;# 
  1416  071B                     	;# 
  1417  071C                     	;# 
  1418  078C                     	;# 
  1419  078D                     	;# 
  1420  078E                     	;# 
  1421  078F                     	;# 
  1422  0790                     	;# 
  1423  0791                     	;# 
  1424  0792                     	;# 
  1425  0796                     	;# 
  1426  0797                     	;# 
  1427  0798                     	;# 
  1428  0799                     	;# 
  1429  079A                     	;# 
  1430  079B                     	;# 
  1431  079C                     	;# 
  1432  080C                     	;# 
  1433  080D                     	;# 
  1434  080E                     	;# 
  1435  080F                     	;# 
  1436  0810                     	;# 
  1437  0811                     	;# 
  1438  0812                     	;# 
  1439  0813                     	;# 
  1440  081F                     	;# 
  1441  081F                     	;# 
  1442  088C                     	;# 
  1443  088D                     	;# 
  1444  0890                     	;# 
  1445  0891                     	;# 
  1446  090C                     	;# 
  1447  090D                     	;# 
  1448  090E                     	;# 
  1449  090F                     	;# 
  1450  0910                     	;# 
  1451  0911                     	;# 
  1452  0912                     	;# 
  1453  1C8C                     	;# 
  1454  1C8C                     	;# 
  1455  1C8D                     	;# 
  1456  1C8E                     	;# 
  1457  1C8E                     	;# 
  1458  1C8F                     	;# 
  1459  1C90                     	;# 
  1460  1C91                     	;# 
  1461  1C92                     	;# 
  1462  1C92                     	;# 
  1463  1C93                     	;# 
  1464  1C95                     	;# 
  1465  1C95                     	;# 
  1466  1C96                     	;# 
  1467  1C98                     	;# 
  1468  1C99                     	;# 
  1469  1C9A                     	;# 
  1470  1C9A                     	;# 
  1471  1C9B                     	;# 
  1472  1C9C                     	;# 
  1473  1C9D                     	;# 
  1474  1C9E                     	;# 
  1475  1C9E                     	;# 
  1476  1C9E                     	;# 
  1477  1C9E                     	;# 
  1478  1C9E                     	;# 
  1479  1C9E                     	;# 
  1480  1C9E                     	;# 
  1481  1C9F                     	;# 
  1482  1C9F                     	;# 
  1483  1C9F                     	;# 
  1484  1C9F                     	;# 
  1485  1CA0                     	;# 
  1486  1CA0                     	;# 
  1487  1CA0                     	;# 
  1488  1CA0                     	;# 
  1489  1CA1                     	;# 
  1490  1CA1                     	;# 
  1491  1CA1                     	;# 
  1492  1CA1                     	;# 
  1493  1CA2                     	;# 
  1494  1CA3                     	;# 
  1495  1CA4                     	;# 
  1496  1D0C                     	;# 
  1497  1D0C                     	;# 
  1498  1D0D                     	;# 
  1499  1D0E                     	;# 
  1500  1D0E                     	;# 
  1501  1D0F                     	;# 
  1502  1D10                     	;# 
  1503  1D10                     	;# 
  1504  1D11                     	;# 
  1505  1D12                     	;# 
  1506  1D12                     	;# 
  1507  1D13                     	;# 
  1508  1D14                     	;# 
  1509  1D14                     	;# 
  1510  1D15                     	;# 
  1511  1D16                     	;# 
  1512  1D16                     	;# 
  1513  1D17                     	;# 
  1514  1D18                     	;# 
  1515  1D19                     	;# 
  1516  1D1A                     	;# 
  1517  1D1B                     	;# 
  1518  1D1B                     	;# 
  1519  1D1C                     	;# 
  1520  1D1D                     	;# 
  1521  1D1D                     	;# 
  1522  1D1E                     	;# 
  1523  1D1F                     	;# 
  1524  1D20                     	;# 
  1525  1D21                     	;# 
  1526  1D21                     	;# 
  1527  1D22                     	;# 
  1528  1D23                     	;# 
  1529  1D24                     	;# 
  1530  1D24                     	;# 
  1531  1D25                     	;# 
  1532  1D26                     	;# 
  1533  1D27                     	;# 
  1534  1D28                     	;# 
  1535  1D29                     	;# 
  1536  1D2A                     	;# 
  1537  1D2B                     	;# 
  1538  1D2C                     	;# 
  1539  1D2D                     	;# 
  1540  1D2E                     	;# 
  1541  1D8C                     	;# 
  1542  1D8D                     	;# 
  1543  1D8E                     	;# 
  1544  1D90                     	;# 
  1545  1D91                     	;# 
  1546  1E0C                     	;# 
  1547  1E0D                     	;# 
  1548  1E0E                     	;# 
  1549  1E0F                     	;# 
  1550  1E10                     	;# 
  1551  1E11                     	;# 
  1552  1E12                     	;# 
  1553  1E19                     	;# 
  1554  1E1A                     	;# 
  1555  1E1E                     	;# 
  1556  1E1F                     	;# 
  1557  1E24                     	;# 
  1558  1E25                     	;# 
  1559  1E26                     	;# 
  1560  1E27                     	;# 
  1561  1E39                     	;# 
  1562  1E3D                     	;# 
  1563  1E3E                     	;# 
  1564  1E3F                     	;# 
  1565  1E40                     	;# 
  1566  1E41                     	;# 
  1567  1E41                     	;# 
  1568  1E42                     	;# 
  1569  1E42                     	;# 
  1570  1E43                     	;# 
  1571  1E43                     	;# 
  1572  1E44                     	;# 
  1573  1E44                     	;# 
  1574  1E47                     	;# 
  1575  1E48                     	;# 
  1576  1E49                     	;# 
  1577  1E4A                     	;# 
  1578  1E4B                     	;# 
  1579  1E4C                     	;# 
  1580  1E50                     	;# 
  1581  1E53                     	;# 
  1582  1E8C                     	;# 
  1583  1E8D                     	;# 
  1584  1E8E                     	;# 
  1585  1E8F                     	;# 
  1586  1E90                     	;# 
  1587  1E91                     	;# 
  1588  1E92                     	;# 
  1589  1E93                     	;# 
  1590  1EE1                     	;# 
  1591  1EE2                     	;# 
  1592  1F0C                     	;# 
  1593  1F0D                     	;# 
  1594  1F0E                     	;# 
  1595  1FE4                     	;# 
  1596  1FE5                     	;# 
  1597  1FE6                     	;# 
  1598  1FE7                     	;# 
  1599  1FE8                     	;# 
  1600  1FE8                     	;# 
  1601  1FE9                     	;# 
  1602  1FEA                     	;# 
  1603  1FEA                     	;# 
  1604  1FEB                     	;# 
  1605  1FED                     	;# 
  1606  1FEE                     	;# 
  1607  1FEF                     	;# 
  1608                           
  1609                           	psect	idataCOMMON
  1610  0106                     __pidataCOMMON:
  1611                           
  1612                           ;initializer for _writeRegister0x01
  1613  0106  3401               	retlw	1
  1614                           
  1615                           ;initializer for _sens
  1616  0107  3401               	retlw	1
  1617  0018                     _LATAbits	set	24
  1618  000B                     _INTCONbits	set	11
  1619  0012                     _TRISAbits	set	18
  1620  000C                     _PORTAbits	set	12
  1621  005E                     _PEIE	set	94
  1622  005F                     _GIE	set	95
  1623  009B                     _PIE5bits	set	155
  1624  048C                     _SSP2IF	set	1164
  1625  0314                     _T3CONbits	set	788
  1626  030E                     _T1CONbits	set	782
  1627  079B                     _SSP2CON2bits	set	1947
  1628  079C                     _SSP2CON3bits	set	1948
  1629  0798                     _SSP2MSK	set	1944
  1630  0797                     _SSP2ADD	set	1943
  1631  079C                     _SSP2CON3	set	1948
  1632  079B                     _SSP2CON2	set	1947
  1633  079A                     _SSP2CON1	set	1946
  1634  0799                     _SSP2STAT	set	1945
  1635  078F                     _SSP1STAT	set	1935
  1636  078D                     _SSP1ADD	set	1933
  1637  0791                     _SSP1CON2	set	1937
  1638  0790                     _SSP1CON1	set	1936
  1639  0799                     _SSP2STATbits	set	1945
  1640  0796                     _SSP2BUF	set	1942
  1641  079A                     _SSP2CON1bits	set	1946
  1642  0810                     _CM2CON0bits	set	2064
  1643  080C                     _CM1CON0bits	set	2060
  1644  088D                     _DAC1DATL	set	2189
  1645  088C                     _DAC1CONbits	set	2188
  1646  1D26                     _ADCON0bits	set	7462
  1647  1D8D                     _RA1PPSbits	set	7565
  1648  1D8C                     _RA0PPSbits	set	7564
  1649  1E4A                     _SSP2CLKPPS	set	7754
  1650  1E4B                     _SSP2DATPPS	set	7755
  1651  1E0C                     _PPSLOCKbits	set	7692
  1652  1E0C                     _PPSLOCK	set	7692
  1653  1E8D                     _WPUAbits	set	7821
  1654  1E8C                     _ANSELAbits	set	7820
  1655                           
  1656                           	psect	cinit
  1657  005C                     start_initialization:	
  1658                           ; #config settings
  1659                           
  1660  005C                     __initialization:
  1661                           
  1662                           ; Initialize objects allocated to COMMON
  1663  005C  3181  2106  3180   	fcall	__pidataCOMMON	;fetch initializer
  1664  005F  00FC               	movwf	__pdataCOMMON& (0+127)
  1665  0060  3181  2107  3180   	fcall	__pidataCOMMON+1	;fetch initializer
  1666  0063  00FD               	movwf	(__pdataCOMMON+1)& (0+127)
  1667                           
  1668                           ; Clear objects allocated to COMMON
  1669  0064  01F7               	clrf	__pbssCOMMON& (0+127)
  1670  0065  01F8               	clrf	(__pbssCOMMON+1)& (0+127)
  1671  0066  01F9               	clrf	(__pbssCOMMON+2)& (0+127)
  1672  0067  01FA               	clrf	(__pbssCOMMON+3)& (0+127)
  1673  0068  01FB               	clrf	(__pbssCOMMON+4)& (0+127)
  1674  0069                     end_of_initialization:	
  1675                           ;End of C runtime variable initialization code
  1676                           
  1677  0069                     __end_of__initialization:
  1678  0069  107E               	bcf	int$flags,0	;clear compiler interrupt flag (level 1)
  1679  006A  0140               	movlb	0
  1680  006B  3180  286D         	ljmp	_main	;jump to C main() function
  1681                           
  1682                           	psect	bssCOMMON
  1683  0077                     __pbssCOMMON:
  1684  0077                     _temp:
  1685  0077                     	ds	2
  1686  0079                     _enableWriteRegister0x01:
  1687  0079                     	ds	1
  1688  007A                     _commandeDAC:
  1689  007A                     	ds	1
  1690  007B                     _dataReceived:
  1691  007B                     	ds	1
  1692                           
  1693                           	psect	dataCOMMON
  1694  007C                     __pdataCOMMON:
  1695  007C                     _writeRegister0x01:
  1696  007C                     	ds	1
  1697  007D                     _sens:
  1698  007D                     	ds	1
  1699                           
  1700                           	psect	cstackCOMMON
  1701  0070                     __pcstackCOMMON:
  1702  0070                     ?_pin_I2C_Configuration:
  1703  0070                     ?_pin_MUX_Configuration:	
  1704                           ; 1 bytes @ 0x0
  1705                           
  1706  0070                     ?_I2C_SLAVE_Init:	
  1707                           ; 1 bytes @ 0x0
  1708                           
  1709  0070                     ?_processCommand:	
  1710                           ; 1 bytes @ 0x0
  1711                           
  1712  0070                     ??_processCommand:	
  1713                           ; 1 bytes @ 0x0
  1714                           
  1715  0070                     ?_I2C_Slave_Read:	
  1716                           ; 1 bytes @ 0x0
  1717                           
  1718  0070                     ?_main:	
  1719                           ; 1 bytes @ 0x0
  1720                           
  1721  0070                     I2C_SLAVE_Init@addr:	
  1722                           ; 2 bytes @ 0x0
  1723                           
  1724                           
  1725                           ; 1 bytes @ 0x0
  1726  0070                     	ds	2
  1727  0072                     processCommand@dataTemp:
  1728                           
  1729                           ; 1 bytes @ 0x2
  1730  0072                     	ds	1
  1731  0073                     ??_I2C_Slave_Read:
  1732                           
  1733                           ; 1 bytes @ 0x3
  1734  0073                     	ds	2
  1735  0075                     ??_pin_I2C_Configuration:
  1736  0075                     ??_pin_MUX_Configuration:	
  1737                           ; 1 bytes @ 0x5
  1738                           
  1739  0075                     ??_I2C_SLAVE_Init:	
  1740                           ; 1 bytes @ 0x5
  1741                           
  1742                           
  1743                           ; 1 bytes @ 0x5
  1744  0075                     	ds	1
  1745  0076                     ??_main:
  1746                           
  1747                           ; 1 bytes @ 0x6
  1748  0076                     	ds	1
  1749                           
  1750                           	psect	maintext
  1751  006D                     __pmaintext:	
  1752 ;;
  1753 ;;Main: autosize = 0, tempsize = 1, incstack = 0, save=0
  1754 ;;
  1755 ;; *************** function _main *****************
  1756 ;; Defined at:
  1757 ;;		line 64 in file "main.c"
  1758 ;; Parameters:    Size  Location     Type
  1759 ;;		None
  1760 ;; Auto vars:     Size  Location     Type
  1761 ;;		None
  1762 ;; Return value:  Size  Location     Type
  1763 ;;                  2   36[None  ] int 
  1764 ;; Registers used:
  1765 ;;		wreg, status,2, status,0, pclath, cstack
  1766 ;; Tracked objects:
  1767 ;;		On entry : B3F/0
  1768 ;;		On exit  : 0/0
  1769 ;;		Unchanged: 0/0
  1770 ;; Data sizes:     COMMON   BANK0   BANK1   BANK2   BANK3   BANK4   BANK5   BANK6   BANK7   BANK8   BANK9  BANK10  BANK1
      +1  BANK12
  1771 ;;      Params:         0       0       0       0       0       0       0       0       0       0       0       0       
      +0       0
  1772 ;;      Locals:         0       0       0       0       0       0       0       0       0       0       0       0       
      +0       0
  1773 ;;      Temps:          1       0       0       0       0       0       0       0       0       0       0       0       
      +0       0
  1774 ;;      Totals:         1       0       0       0       0       0       0       0       0       0       0       0       
      +0       0
  1775 ;;Total ram usage:        1 bytes
  1776 ;; Hardware stack levels required when called: 3
  1777 ;; This function calls:
  1778 ;;		_I2C_SLAVE_Init
  1779 ;;		_pin_I2C_Configuration
  1780 ;;		_pin_MUX_Configuration
  1781 ;; This function is called by:
  1782 ;;		Startup code after reset
  1783 ;; This function uses a non-reentrant model
  1784 ;;
  1785                           
  1786  006D                     _main:	
  1787                           ;psect for function _main
  1788                           
  1789  006D                     l859:	
  1790                           ;incstack = 0
  1791                           ; Regs used in _main: [wreg+status,2+status,0+pclath+cstack]
  1792                           
  1793                           
  1794                           ;main.c: 67: 
  1795  006D  3180  20D5  3180   	fcall	_pin_I2C_Configuration
  1796  0070                     l861:
  1797                           
  1798                           ;main.c: 68:             else{
  1799  0070  3180  20F0  3180   	fcall	_pin_MUX_Configuration
  1800  0073                     l863:
  1801                           
  1802                           ;main.c: 71: 
  1803  0073  3001               	movlw	1
  1804  0074  3180  20B6  3180   	fcall	_I2C_SLAVE_Init
  1805  0077                     l865:
  1806                           
  1807                           ;main.c: 74: 
  1808  0077  0151               	movlb	17	; select bank17
  1809  0078  178C               	bsf	12,7	;volatile
  1810  0079                     l867:
  1811                           
  1812                           ;main.c: 75: 
  1813  0079  130C               	bcf	12,6	;volatile
  1814  007A                     l869:
  1815                           
  1816                           ;main.c: 76: 
  1817  007A  080C               	movf	12,w	;volatile
  1818  007B  39CF               	andlw	-49
  1819  007C  3820               	iorlw	32
  1820  007D  008C               	movwf	12	;volatile
  1821  007E                     l871:
  1822                           
  1823                           ;main.c: 77: 
  1824  007E  30F3               	movlw	-13
  1825  007F  058C               	andwf	12,f	;volatile
  1826  0080                     l873:
  1827                           
  1828                           ;main.c: 78: 
  1829  0080  100C               	bcf	12,0	;volatile
  1830  0081                     l875:
  1831                           
  1832                           ;main.c: 82:   if(SSP2IF == 1)
  1833  0081  087A               	movf	_commandeDAC,w
  1834  0082  0151               	movlb	17	; select bank17
  1835  0083  008D               	movwf	13	;volatile
  1836  0084                     l877:
  1837                           
  1838                           ;main.c: 83:   {
  1839  0084  0C7D               	rrf	_sens,w
  1840  0085  0140               	movlb	0	; select bank0
  1841  0086  1C03               	skipc
  1842  0087  120C               	bcf	12,4	;volatile
  1843  0088  1803               	skipnc
  1844  0089  160C               	bsf	12,4	;volatile
  1845  008A                     l879:
  1846                           
  1847                           ;main.c: 84:     SSP2CON1bits.CKP = 0;
  1848  008A  097D               	comf	_sens,w
  1849  008B  00F6               	movwf	??_main
  1850  008C  0EF6               	swapf	??_main,f
  1851  008D  0DF6               	rlf	??_main,f
  1852  008E  080C               	movf	12,w	;volatile
  1853  008F  0676               	xorwf	??_main,w
  1854  0090  39DF               	andlw	-33
  1855  0091  0676               	xorwf	??_main,w
  1856  0092  008C               	movwf	12	;volatile
  1857  0093  2881               	goto	l875
  1858  0094  3180  285A         	ljmp	start
  1859  0096                     __end_of_main:
  1860                           
  1861                           	psect	text1
  1862  00F0                     __ptext1:	
  1863 ;; *************** function _pin_MUX_Configuration *****************
  1864 ;; Defined at:
  1865 ;;		line 47 in file "pin.c"
  1866 ;; Parameters:    Size  Location     Type
  1867 ;;		None
  1868 ;; Auto vars:     Size  Location     Type
  1869 ;;		None
  1870 ;; Return value:  Size  Location     Type
  1871 ;;                  1    wreg      void 
  1872 ;; Registers used:
  1873 ;;		None
  1874 ;; Tracked objects:
  1875 ;;		On entry : 0/0
  1876 ;;		On exit  : 0/0
  1877 ;;		Unchanged: 0/0
  1878 ;; Data sizes:     COMMON   BANK0   BANK1   BANK2   BANK3   BANK4   BANK5   BANK6   BANK7   BANK8   BANK9  BANK10  BANK1
      +1  BANK12
  1879 ;;      Params:         0       0       0       0       0       0       0       0       0       0       0       0       
      +0       0
  1880 ;;      Locals:         0       0       0       0       0       0       0       0       0       0       0       0       
      +0       0
  1881 ;;      Temps:          0       0       0       0       0       0       0       0       0       0       0       0       
      +0       0
  1882 ;;      Totals:         0       0       0       0       0       0       0       0       0       0       0       0       
      +0       0
  1883 ;;Total ram usage:        0 bytes
  1884 ;; Hardware stack levels used: 1
  1885 ;; Hardware stack levels required when called: 2
  1886 ;; This function calls:
  1887 ;;		Nothing
  1888 ;; This function is called by:
  1889 ;;		_main
  1890 ;; This function uses a non-reentrant model
  1891 ;;
  1892                           
  1893  00F0                     _pin_MUX_Configuration:	
  1894                           ;psect for function _pin_MUX_Configuration
  1895                           
  1896  00F0                     l801:	
  1897                           ;incstack = 0
  1898                           ; Regs used in _pin_MUX_Configuration: []
  1899                           
  1900                           
  1901                           ;pin.c: 50:     CM1CON0bits.EN = 0;
  1902  00F0  0150               	movlb	16	; select bank16
  1903  00F1  138C               	bcf	12,7	;volatile
  1904                           
  1905                           ;pin.c: 51:     CM2CON0bits.EN = 0;
  1906  00F2  1390               	bcf	16,7	;volatile
  1907                           
  1908                           ;pin.c: 52:     ADCON0bits.ON = 0;
  1909  00F3  017A               	movlb	58	; select bank58
  1910  00F4  13A6               	bcf	38,7	;volatile
  1911                           
  1912                           ;pin.c: 53:     T1CONbits.ON = 0;
  1913  00F5  0146               	movlb	6	; select bank6
  1914  00F6  100E               	bcf	14,0	;volatile
  1915                           
  1916                           ;pin.c: 54:     T3CONbits.ON = 0;
  1917  00F7  1014               	bcf	20,0	;volatile
  1918                           
  1919                           ;pin.c: 59:     TRISAbits.TRISA5 = 0;
  1920  00F8  0140               	movlb	0	; select bank0
  1921  00F9  1292               	bcf	18,5	;volatile
  1922                           
  1923                           ;pin.c: 60:     LATAbits.LATA5 = 0;
  1924  00FA  1298               	bcf	24,5	;volatile
  1925                           
  1926                           ;pin.c: 61:     ANSELAbits.ANSA5 = 0;
  1927  00FB  017D               	movlb	61	; select bank61
  1928  00FC  128C               	bcf	12,5	;volatile
  1929                           
  1930                           ;pin.c: 64:     PORTAbits.RA5 = 0;
  1931  00FD  0140               	movlb	0	; select bank0
  1932  00FE  128C               	bcf	12,5	;volatile
  1933                           
  1934                           ;pin.c: 69:     TRISAbits.TRISA4 = 0;
  1935  00FF  1212               	bcf	18,4	;volatile
  1936                           
  1937                           ;pin.c: 70:     LATAbits.LATA4 = 0;
  1938  0100  1218               	bcf	24,4	;volatile
  1939                           
  1940                           ;pin.c: 71:     ANSELAbits.ANSA4 = 0;
  1941  0101  017D               	movlb	61	; select bank61
  1942  0102  120C               	bcf	12,4	;volatile
  1943                           
  1944                           ;pin.c: 74:     PORTAbits.RA4 = 0;
  1945  0103  0140               	movlb	0	; select bank0
  1946  0104  120C               	bcf	12,4	;volatile
  1947  0105                     l169:
  1948  0105  0008               	return
  1949  0106                     __end_of_pin_MUX_Configuration:
  1950                           
  1951                           	psect	text2
  1952  00D5                     __ptext2:	
  1953 ;; *************** function _pin_I2C_Configuration *****************
  1954 ;; Defined at:
  1955 ;;		line 13 in file "pin.c"
  1956 ;; Parameters:    Size  Location     Type
  1957 ;;		None
  1958 ;; Auto vars:     Size  Location     Type
  1959 ;;		None
  1960 ;; Return value:  Size  Location     Type
  1961 ;;                  1    wreg      void 
  1962 ;; Registers used:
  1963 ;;		wreg, status,2, status,0
  1964 ;; Tracked objects:
  1965 ;;		On entry : 0/0
  1966 ;;		On exit  : 0/0
  1967 ;;		Unchanged: 0/0
  1968 ;; Data sizes:     COMMON   BANK0   BANK1   BANK2   BANK3   BANK4   BANK5   BANK6   BANK7   BANK8   BANK9  BANK10  BANK1
      +1  BANK12
  1969 ;;      Params:         0       0       0       0       0       0       0       0       0       0       0       0       
      +0       0
  1970 ;;      Locals:         0       0       0       0       0       0       0       0       0       0       0       0       
      +0       0
  1971 ;;      Temps:          0       0       0       0       0       0       0       0       0       0       0       0       
      +0       0
  1972 ;;      Totals:         0       0       0       0       0       0       0       0       0       0       0       0       
      +0       0
  1973 ;;Total ram usage:        0 bytes
  1974 ;; Hardware stack levels used: 1
  1975 ;; Hardware stack levels required when called: 2
  1976 ;; This function calls:
  1977 ;;		Nothing
  1978 ;; This function is called by:
  1979 ;;		_main
  1980 ;; This function uses a non-reentrant model
  1981 ;;
  1982                           
  1983  00D5                     _pin_I2C_Configuration:	
  1984                           ;psect for function _pin_I2C_Configuration
  1985                           
  1986  00D5                     l779:	
  1987                           ;incstack = 0
  1988                           ; Regs used in _pin_I2C_Configuration: [wreg+status,2+status,0]
  1989                           
  1990                           
  1991                           ;pin.c: 18:     INTCONbits.GIE = 0;
  1992  00D5  138B               	bcf	11,7	;volatile
  1993  00D6                     l781:
  1994                           
  1995                           ;pin.c: 19:     PPSLOCK = 0x55;
  1996  00D6  3055               	movlw	85
  1997  00D7  017C               	movlb	60	; select bank60
  1998  00D8  008C               	movwf	12	;volsfr
  1999                           
  2000                           ;pin.c: 20:     PPSLOCK = 0xAA;
  2001  00D9  30AA               	movlw	170
  2002  00DA  008C               	movwf	12	;volsfr
  2003  00DB                     l783:
  2004                           
  2005                           ;pin.c: 21:     PPSLOCKbits.PPSLOCKED = 0;
  2006  00DB  100C               	bcf	12,0	;volsfr
  2007  00DC                     l785:
  2008                           
  2009                           ;pin.c: 26:     SSP2DATPPS = 0x0;
  2010  00DC  01CB               	clrf	75	;volatile
  2011  00DD                     l787:
  2012                           
  2013                           ;pin.c: 27:     SSP2CLKPPS = 0x1;
  2014  00DD  3001               	movlw	1
  2015  00DE  00CA               	movwf	74	;volatile
  2016  00DF                     l789:
  2017                           
  2018                           ;pin.c: 30:     RA0PPSbits.RA0PPS = 0x1E;
  2019  00DF  017B               	movlb	59	; select bank59
  2020  00E0  080C               	movf	12,w	;volatile
  2021  00E1  39C0               	andlw	-64
  2022  00E2  381E               	iorlw	30
  2023  00E3  008C               	movwf	12	;volatile
  2024  00E4                     l791:
  2025                           
  2026                           ;pin.c: 31:     RA1PPSbits.RA1PPS = 0x1D;
  2027  00E4  080D               	movf	13,w	;volatile
  2028  00E5  39C0               	andlw	-64
  2029  00E6  381D               	iorlw	29
  2030  00E7  008D               	movwf	13	;volatile
  2031  00E8                     l793:
  2032                           
  2033                           ;pin.c: 36:     PPSLOCK = 0x55;
  2034  00E8  3055               	movlw	85
  2035  00E9  017C               	movlb	60	; select bank60
  2036  00EA  008C               	movwf	12	;volsfr
  2037  00EB                     l795:
  2038                           
  2039                           ;pin.c: 37:     PPSLOCK = 0xAA;
  2040  00EB  30AA               	movlw	170
  2041  00EC  008C               	movwf	12	;volsfr
  2042  00ED                     l797:
  2043                           
  2044                           ;pin.c: 38:     PPSLOCKbits.PPSLOCKED = 1;
  2045  00ED  140C               	bsf	12,0	;volsfr
  2046  00EE                     l799:
  2047                           
  2048                           ;pin.c: 39:     INTCONbits.GIE = 1;
  2049  00EE  178B               	bsf	11,7	;volatile
  2050  00EF                     l166:
  2051  00EF  0008               	return
  2052  00F0                     __end_of_pin_I2C_Configuration:
  2053                           
  2054                           	psect	text3
  2055  00B6                     __ptext3:	
  2056 ;; *************** function _I2C_SLAVE_Init *****************
  2057 ;; Defined at:
  2058 ;;		line 34 in file "i2c.c"
  2059 ;; Parameters:    Size  Location     Type
  2060 ;;  addr            1    wreg     unsigned char 
  2061 ;; Auto vars:     Size  Location     Type
  2062 ;;  addr            1    0[COMMON] unsigned char 
  2063 ;; Return value:  Size  Location     Type
  2064 ;;                  1    wreg      void 
  2065 ;; Registers used:
  2066 ;;		wreg, status,2, status,0
  2067 ;; Tracked objects:
  2068 ;;		On entry : 0/0
  2069 ;;		On exit  : 0/0
  2070 ;;		Unchanged: 0/0
  2071 ;; Data sizes:     COMMON   BANK0   BANK1   BANK2   BANK3   BANK4   BANK5   BANK6   BANK7   BANK8   BANK9  BANK10  BANK1
      +1  BANK12
  2072 ;;      Params:         0       0       0       0       0       0       0       0       0       0       0       0       
      +0       0
  2073 ;;      Locals:         0       0       0       0       0       0       0       0       0       0       0       0       
      +0       0
  2074 ;;      Temps:          1       0       0       0       0       0       0       0       0       0       0       0       
      +0       0
  2075 ;;      Totals:         1       0       0       0       0       0       0       0       0       0       0       0       
      +0       0
  2076 ;;Total ram usage:        1 bytes
  2077 ;; Hardware stack levels used: 1
  2078 ;; Hardware stack levels required when called: 2
  2079 ;; This function calls:
  2080 ;;		Nothing
  2081 ;; This function is called by:
  2082 ;;		_main
  2083 ;; This function uses a non-reentrant model
  2084 ;;
  2085                           
  2086  00B6                     _I2C_SLAVE_Init:	
  2087                           ;psect for function _I2C_SLAVE_Init
  2088                           
  2089  00B6                     l803:	
  2090                           ;incstack = 0
  2091                           ; Regs used in _I2C_SLAVE_Init: [wreg+status,2+status,0]
  2092                           
  2093                           
  2094                           ;i2c.c: 34: void I2C_SLAVE_Init(uint8_t addr);i2c.c: 35: {;i2c.c: 42:     SSP2STAT = 0xA
      +                          4;
  2095  00B6  30A4               	movlw	164
  2096  00B7  014F               	movlb	15	; select bank15
  2097  00B8  0099               	movwf	25	;volatile
  2098  00B9                     l805:
  2099                           
  2100                           ;i2c.c: 44:     SSP2CON1 |= 0x6;
  2101  00B9  3006               	movlw	6
  2102  00BA  00F5               	movwf	??_I2C_SLAVE_Init
  2103  00BB  0875               	movf	??_I2C_SLAVE_Init,w
  2104  00BC  049A               	iorwf	26,f	;volatile
  2105  00BD                     l807:
  2106                           
  2107                           ;i2c.c: 46:     SSP2CON2 = 0x1;
  2108  00BD  3001               	movlw	1
  2109  00BE  009B               	movwf	27	;volatile
  2110  00BF                     l809:
  2111                           
  2112                           ;i2c.c: 48:     SSP2CON3 = 0x0;
  2113  00BF  019C               	clrf	28	;volatile
  2114  00C0                     l811:
  2115                           
  2116                           ;i2c.c: 50:     SSP2ADD = 0x0;
  2117  00C0  0197               	clrf	23	;volatile
  2118  00C1                     l813:
  2119                           
  2120                           ;i2c.c: 52:     SSP2MSK = 0x0;
  2121  00C1  0198               	clrf	24	;volatile
  2122  00C2                     l815:
  2123                           
  2124                           ;i2c.c: 55:   ANSELAbits.ANSA0 = 0;
  2125  00C2  017D               	movlb	61	; select bank61
  2126  00C3  100C               	bcf	12,0	;volatile
  2127  00C4                     l817:
  2128                           
  2129                           ;i2c.c: 56:   ANSELAbits.ANSA1 = 0;
  2130  00C4  108C               	bcf	12,1	;volatile
  2131  00C5                     l819:
  2132                           
  2133                           ;i2c.c: 57:   TRISAbits.TRISA0 = 1;
  2134  00C5  0140               	movlb	0	; select bank0
  2135  00C6  1412               	bsf	18,0	;volatile
  2136  00C7                     l821:
  2137                           
  2138                           ;i2c.c: 58:   TRISAbits.TRISA1 = 1;
  2139  00C7  1492               	bsf	18,1	;volatile
  2140  00C8                     l823:
  2141                           
  2142                           ;i2c.c: 59:   WPUAbits.WPUA0 = 1;
  2143  00C8  017D               	movlb	61	; select bank61
  2144  00C9  140D               	bsf	13,0	;volatile
  2145  00CA                     l825:
  2146                           
  2147                           ;i2c.c: 60:   WPUAbits.WPUA1 = 1;
  2148  00CA  148D               	bsf	13,1	;volatile
  2149  00CB                     l827:
  2150                           
  2151                           ;i2c.c: 62:   GIE = 1;
  2152  00CB  178B               	bsf	11,7	;volatile
  2153  00CC                     l829:
  2154                           
  2155                           ;i2c.c: 63:   PEIE = 1;
  2156  00CC  170B               	bsf	11,6	;volatile
  2157  00CD                     l831:
  2158                           
  2159                           ;i2c.c: 67:     PIE5bits.SSP2IE = 1;
  2160  00CD  0141               	movlb	1	; select bank1
  2161  00CE  161B               	bsf	27,4	;volatile
  2162  00CF                     l833:
  2163                           
  2164                           ;i2c.c: 68:     SSP2IF = 0;
  2165  00CF  1211               	bcf	17,4	;volatile
  2166  00D0                     l835:
  2167                           
  2168                           ;i2c.c: 69:     PIE5bits.BCL2IE = 1;
  2169  00D0  169B               	bsf	27,5	;volatile
  2170  00D1                     l837:
  2171                           
  2172                           ;i2c.c: 70:     SSP2CON3bits.PCIE = 1;
  2173  00D1  014F               	movlb	15	; select bank15
  2174  00D2  171C               	bsf	28,6	;volatile
  2175  00D3                     l839:
  2176                           
  2177                           ;i2c.c: 71:     SSP2CON1bits.SSPEN = 1;
  2178  00D3  169A               	bsf	26,5	;volatile
  2179  00D4                     l113:
  2180  00D4  0008               	return
  2181  00D5                     __end_of_I2C_SLAVE_Init:
  2182                           
  2183                           	psect	intentry
  2184  0004                     __pintentry:	
  2185 ;; *************** function _I2C_Slave_Read *****************
  2186 ;; Defined at:
  2187 ;;		line 127 in file "main.c"
  2188 ;; Parameters:    Size  Location     Type
  2189 ;;		None
  2190 ;; Auto vars:     Size  Location     Type
  2191 ;;		None
  2192 ;; Return value:  Size  Location     Type
  2193 ;;                  1    wreg      void 
  2194 ;; Registers used:
  2195 ;;		wreg, status,2, status,0, pclath, cstack
  2196 ;; Tracked objects:
  2197 ;;		On entry : 0/0
  2198 ;;		On exit  : 0/0
  2199 ;;		Unchanged: 0/0
  2200 ;; Data sizes:     COMMON   BANK0   BANK1   BANK2   BANK3   BANK4   BANK5   BANK6   BANK7   BANK8   BANK9  BANK10  BANK1
      +1  BANK12
  2201 ;;      Params:         0       0       0       0       0       0       0       0       0       0       0       0       
      +0       0
  2202 ;;      Locals:         0       0       0       0       0       0       0       0       0       0       0       0       
      +0       0
  2203 ;;      Temps:          2       0       0       0       0       0       0       0       0       0       0       0       
      +0       0
  2204 ;;      Totals:         2       0       0       0       0       0       0       0       0       0       0       0       
      +0       0
  2205 ;;Total ram usage:        2 bytes
  2206 ;; Hardware stack levels used: 1
  2207 ;; Hardware stack levels required when called: 1
  2208 ;; This function calls:
  2209 ;;		_processCommand
  2210 ;; This function is called by:
  2211 ;;		Interrupt level 1
  2212 ;; This function uses a non-reentrant model
  2213 ;;
  2214                           
  2215  0004                     _I2C_Slave_Read:
  2216                           
  2217                           ;incstack = 0
  2218  0004  147E               	bsf	int$flags,0	;set compiler interrupt flag (level 1)
  2219                           
  2220                           ; Regs used in _I2C_Slave_Read: [wreg+status,2+status,0+pclath+cstack]
  2221  0005  3180               	pagesel	$
  2222  0006                     i1l881:
  2223  0006  0141               	movlb	1	; select bank1
  2224  0007  1E11               	btfss	17,4	;volatile
  2225  0008  280A               	goto	u6_21
  2226  0009  280B               	goto	u6_20
  2227  000A                     u6_21:
  2228  000A  2858               	goto	i1l65
  2229  000B                     u6_20:
  2230  000B                     i1l883:
  2231  000B  014F               	movlb	15	; select bank15
  2232  000C  121A               	bcf	26,4	;volatile
  2233  000D  1B1A               	btfsc	26,6	;volatile
  2234  000E  2810               	goto	u7_21
  2235  000F  2811               	goto	u7_20
  2236  0010                     u7_21:
  2237  0010  2815               	goto	i1l887
  2238  0011                     u7_20:
  2239  0011                     i1l885:
  2240  0011  1F9A               	btfss	26,7	;volatile
  2241  0012  2814               	goto	u8_21
  2242  0013  2815               	goto	u8_20
  2243  0014                     u8_21:
  2244  0014  281F               	goto	i1l895
  2245  0015                     u8_20:
  2246  0015                     i1l887:
  2247  0015  0816               	movf	22,w	;volatile
  2248  0016  00F3               	movwf	??_I2C_Slave_Read
  2249  0017  01F4               	clrf	??_I2C_Slave_Read+1
  2250  0018  0873               	movf	??_I2C_Slave_Read,w
  2251  0019  00F7               	movwf	_temp
  2252  001A  0874               	movf	??_I2C_Slave_Read+1,w
  2253  001B  00F8               	movwf	_temp+1
  2254  001C                     i1l889:
  2255  001C  131A               	bcf	26,6	;volatile
  2256  001D                     i1l891:
  2257  001D  139A               	bcf	26,7	;volatile
  2258  001E                     i1l893:
  2259  001E  161A               	bsf	26,4	;volatile
  2260  001F                     i1l895:
  2261  001F  1A99               	btfsc	25,5	;volatile
  2262  0020  2822               	goto	u9_21
  2263  0021  2823               	goto	u9_20
  2264  0022                     u9_21:
  2265  0022  283E               	goto	i1l56
  2266  0023                     u9_20:
  2267  0023                     i1l897:
  2268  0023  1919               	btfsc	25,2	;volatile
  2269  0024  2826               	goto	u10_21
  2270  0025  2827               	goto	u10_20
  2271  0026                     u10_21:
  2272  0026  283E               	goto	i1l56
  2273  0027                     u10_20:
  2274  0027                     i1l899:
  2275  0027  0816               	movf	22,w	;volatile
  2276  0028  00F3               	movwf	??_I2C_Slave_Read
  2277  0029  01F4               	clrf	??_I2C_Slave_Read+1
  2278  002A  0873               	movf	??_I2C_Slave_Read,w
  2279  002B  00F7               	movwf	_temp
  2280  002C  0874               	movf	??_I2C_Slave_Read+1,w
  2281  002D  00F8               	movwf	_temp+1
  2282  002E                     i1l901:
  2283  002E  161A               	bsf	26,4	;volatile
  2284  002F                     i1l57:
  2285  002F  1C19               	btfss	25,0	;volatile
  2286  0030  2832               	goto	u11_21
  2287  0031  2833               	goto	u11_20
  2288  0032                     u11_21:
  2289  0032  282F               	goto	i1l57
  2290  0033                     u11_20:
  2291  0033                     i1l903:
  2292  0033  0816               	movf	22,w	;volatile
  2293  0034  00F3               	movwf	??_I2C_Slave_Read
  2294  0035  0873               	movf	??_I2C_Slave_Read,w
  2295  0036  00FB               	movwf	_dataReceived
  2296  0037                     i1l905:
  2297  0037  087B               	movf	_dataReceived,w
  2298  0038  3180  2096  3180   	fcall	_processCommand
  2299  003B                     i1l907:
  2300  003B  014F               	movlb	15	; select bank15
  2301  003C  161A               	bsf	26,4	;volatile
  2302  003D  2854               	goto	i1l60
  2303  003E                     i1l56:
  2304  003E  1A99               	btfsc	25,5	;volatile
  2305  003F  2841               	goto	u12_21
  2306  0040  2842               	goto	u12_20
  2307  0041                     u12_21:
  2308  0041  2854               	goto	i1l60
  2309  0042                     u12_20:
  2310  0042                     i1l909:
  2311  0042  1D19               	btfss	25,2	;volatile
  2312  0043  2845               	goto	u13_21
  2313  0044  2846               	goto	u13_20
  2314  0045                     u13_21:
  2315  0045  2854               	goto	i1l60
  2316  0046                     u13_20:
  2317  0046                     i1l911:
  2318  0046  0816               	movf	22,w	;volatile
  2319  0047  00F3               	movwf	??_I2C_Slave_Read
  2320  0048  01F4               	clrf	??_I2C_Slave_Read+1
  2321  0049  0873               	movf	??_I2C_Slave_Read,w
  2322  004A  00F7               	movwf	_temp
  2323  004B  0874               	movf	??_I2C_Slave_Read+1,w
  2324  004C  00F8               	movwf	_temp+1
  2325  004D                     i1l913:
  2326  004D  1019               	bcf	25,0	;volatile
  2327  004E                     i1l915:
  2328  004E  0196               	clrf	22	;volatile
  2329  004F                     i1l917:
  2330  004F  161A               	bsf	26,4	;volatile
  2331  0050                     i1l62:
  2332  0050  1819               	btfsc	25,0	;volatile
  2333  0051  2853               	goto	u14_21
  2334  0052  2854               	goto	u14_20
  2335  0053                     u14_21:
  2336  0053  2850               	goto	i1l62
  2337  0054                     u14_20:
  2338  0054                     i1l60:
  2339  0054  0141               	movlb	1	; select bank1
  2340  0055  1211               	bcf	17,4	;volatile
  2341  0056  014F               	movlb	15	; select bank15
  2342  0057  161A               	bsf	26,4	;volatile
  2343  0058                     i1l65:
  2344  0058  107E               	bcf	int$flags,0	;clear compiler interrupt flag (level 1)
  2345  0059  0009               	retfie
  2346  005A                     __end_of_I2C_Slave_Read:
  2347                           
  2348                           	psect	text5
  2349  0096                     __ptext5:	
  2350 ;; *************** function _processCommand *****************
  2351 ;; Defined at:
  2352 ;;		line 96 in file "main.c"
  2353 ;; Parameters:    Size  Location     Type
  2354 ;;  dataTemp        1    wreg     unsigned char 
  2355 ;; Auto vars:     Size  Location     Type
  2356 ;;  dataTemp        1    2[COMMON] unsigned char 
  2357 ;; Return value:  Size  Location     Type
  2358 ;;                  1    wreg      void 
  2359 ;; Registers used:
  2360 ;;		wreg, status,2, status,0
  2361 ;; Tracked objects:
  2362 ;;		On entry : 0/0
  2363 ;;		On exit  : 0/0
  2364 ;;		Unchanged: 0/0
  2365 ;; Data sizes:     COMMON   BANK0   BANK1   BANK2   BANK3   BANK4   BANK5   BANK6   BANK7   BANK8   BANK9  BANK10  BANK1
      +1  BANK12
  2366 ;;      Params:         0       0       0       0       0       0       0       0       0       0       0       0       
      +0       0
  2367 ;;      Locals:         1       0       0       0       0       0       0       0       0       0       0       0       
      +0       0
  2368 ;;      Temps:          2       0       0       0       0       0       0       0       0       0       0       0       
      +0       0
  2369 ;;      Totals:         3       0       0       0       0       0       0       0       0       0       0       0       
      +0       0
  2370 ;;Total ram usage:        3 bytes
  2371 ;; Hardware stack levels used: 1
  2372 ;; This function calls:
  2373 ;;		Nothing
  2374 ;; This function is called by:
  2375 ;;		_I2C_Slave_Read
  2376 ;; This function uses a non-reentrant model
  2377 ;;
  2378                           
  2379  0096                     _processCommand:	
  2380                           ;psect for function _processCommand
  2381                           
  2382                           
  2383                           ;incstack = 0
  2384                           ; Regs used in _processCommand: [wreg+status,2+status,0]
  2385                           ;processCommand@dataTemp stored from wreg
  2386  0096  00F2               	movwf	processCommand@dataTemp
  2387  0097                     i1l841:
  2388                           
  2389                           ;main.c: 101:       dataReceived = SSP2BUF;
  2390  0097  0879               	movf	_enableWriteRegister0x01,w
  2391  0098  1903               	btfsc	3,2
  2392  0099  289B               	goto	u1_21
  2393  009A  289C               	goto	u1_20
  2394  009B                     u1_21:
  2395  009B  28AD               	goto	i1l849
  2396  009C                     u1_20:
  2397  009C                     i1l843:
  2398                           
  2399                           ;main.c: 102:       processCommand(dataReceived);
  2400  009C  0872               	movf	processCommand@dataTemp,w
  2401  009D  00F0               	movwf	??_processCommand
  2402  009E  3007               	movlw	7
  2403  009F                     u2_25:
  2404  009F  36F0               	lsrf	??_processCommand,f
  2405  00A0  0B89               	decfsz	9,f
  2406  00A1  289F               	goto	u2_25
  2407  00A2  0870               	movf	??_processCommand,w
  2408  00A3  00F1               	movwf	??_processCommand+1
  2409  00A4  0871               	movf	??_processCommand+1,w
  2410  00A5  00FD               	movwf	_sens
  2411  00A6                     i1l845:
  2412                           
  2413                           ;main.c: 103:       SSP2CON1bits.CKP = 1;
  2414  00A6  0872               	movf	processCommand@dataTemp,w
  2415  00A7  397F               	andlw	127
  2416  00A8  00F0               	movwf	??_processCommand
  2417  00A9  0870               	movf	??_processCommand,w
  2418  00AA  00FA               	movwf	_commandeDAC
  2419  00AB                     i1l847:
  2420                           
  2421                           ;main.c: 104:     }
  2422  00AB  01F9               	clrf	_enableWriteRegister0x01
  2423                           
  2424                           ;main.c: 105: 
  2425  00AC  28B5               	goto	i1l47
  2426  00AD                     i1l849:
  2427                           
  2428                           ;main.c: 111:       SSP2BUF = 0;
  2429  00AD  0872               	movf	processCommand@dataTemp,w
  2430  00AE  067C               	xorwf	_writeRegister0x01,w
  2431  00AF  1D03               	skipz
  2432  00B0  28B2               	goto	u3_21
  2433  00B1  28B3               	goto	u3_20
  2434  00B2                     u3_21:
  2435  00B2  28AB               	goto	i1l847
  2436  00B3                     u3_20:
  2437  00B3                     i1l851:
  2438                           
  2439                           ;main.c: 112:       SSP2CON1bits.CKP = 1;
  2440  00B3  01F9               	clrf	_enableWriteRegister0x01
  2441  00B4  0AF9               	incf	_enableWriteRegister0x01,f
  2442  00B5                     i1l47:	
  2443                           ;main.c: 113:       while(SSP2STATbits.BF);
  2444                           
  2445  00B5  0008               	return
  2446  00B6                     __end_of_processCommand:
  2447  007E                     btemp	set	126	;btemp
  2448  007E                     int$flags	set	126
  2449  007E                     wtemp0	set	126
  2450                           
  2451                           	psect	config
  2452                           
  2453                           ;Config register CONFIG1 @ 0x8007
  2454                           ;	External Oscillator Selection bits
  2455                           ;	FEXTOSC = OFF, Oscillator not enabled
  2456                           ;	Reset Oscillator Selection bits
  2457                           ;	RSTOSC = EXTOSC, EXTOSC operating per FEXTOSC bits
  2458                           ;	Clock Out Enable bit
  2459                           ;	CLKOUTEN = OFF, CLKOUT function is disabled; i/o or oscillator function on OSC2
  2460                           ;	Clock Switch Enable bit
  2461                           ;	CSWEN = 0x1, unprogrammed default
  2462                           ;	VDD Range Analog Calibration Selection bit
  2463                           ;	VDDAR = HI, Internal analog systems are calibrated for operation between VDD = 2.3 - 5
      +                          .5V
  2464                           ;	Fail-Safe Clock Monitor Enable bit
  2465                           ;	FCMEN = 0x1, unprogrammed default
  2466  8007                     	org	32775
  2467  8007  3FFC               	dw	16380
  2468                           
  2469                           ;Config register CONFIG2 @ 0x8008
  2470                           ;	Master Clear Enable bit
  2471                           ;	MCLRE = EXTMCLR, If LVP = 0, MCLR pin is MCLR; If LVP = 1, RA3 pin function is MCLR
  2472                           ;	Power-up Timer Selection bits
  2473                           ;	PWRTS = PWRT_OFF, PWRT is disabled
  2474                           ;	Low-Power BOR Enable bit
  2475                           ;	LPBOREN = 0x1, unprogrammed default
  2476                           ;	Brown-out Reset Enable bits
  2477                           ;	BOREN = ON, Brown-out Reset enabled, SBOREN bit is ignored
  2478                           ;	DAC Buffer Automatic Range Select Enable bit
  2479                           ;	DACAUTOEN = 0x1, unprogrammed default
  2480                           ;	Brown-out Reset Voltage Selection bit
  2481                           ;	BORV = LO, Brown-out Reset Voltage (VBOR) set to 1.9V
  2482                           ;	ZCD Disable bit
  2483                           ;	ZCD = 0x1, unprogrammed default
  2484                           ;	PPSLOCKED One-Way Set Enable bit
  2485                           ;	PPS1WAY = ON, The PPSLOCKED bit can be cleared and set only once after an unlocking se
      +                          quence is executed; once PPSLOCKED is set, all future changes to PPS registers are preve
      +                          nted
  2486                           ;	Stack Overflow/Underflow Reset Enable bit
  2487                           ;	STVREN = ON, Stack Overflow or Underflow will cause a reset
  2488                           ;	Background Debugger
  2489                           ;	DEBUG = 0x1, unprogrammed default
  2490  8008                     	org	32776
  2491  8008  3FFF               	dw	16383
  2492                           
  2493                           ;Config register CONFIG3 @ 0x8009
  2494                           ;	WDT Period Select bits
  2495                           ;	WDTCPS = 0x1F, unprogrammed default
  2496                           ;	WDT Operating Mode bits
  2497                           ;	WDTE = OFF, WDT Disabled, SEN is ignored
  2498                           ;	WDT Window Select bits
  2499                           ;	WDTCWS = 0x7, unprogrammed default
  2500                           ;	WDT Input Clock Select bits
  2501                           ;	WDTCCS = 0x7, unprogrammed default
  2502  8009                     	org	32777
  2503  8009  3F9F               	dw	16287
  2504                           
  2505                           ;Config register CONFIG4 @ 0x800A
  2506                           ;	Boot Block Size Selection bits
  2507                           ;	BBSIZE = BB512, 512 words boot block size
  2508                           ;	Boot Block Enable bit
  2509                           ;	BBEN = OFF, Boot Block disabled
  2510                           ;	Storage Area Flash (SAF) Enable bit
  2511                           ;	SAFEN = OFF, SAF disabled
  2512                           ;	Application Block Write Protection bit
  2513                           ;	WRTAPP = OFF, Application Block is NOT write protected
  2514                           ;	Boot Block Write Protection bit
  2515                           ;	WRTB = OFF, Boot Block is NOT write protected
  2516                           ;	Configuration Register Write Protection bit
  2517                           ;	WRTC = OFF, Configuration Register is NOT write protected
  2518                           ;	Data EEPROM Write Protection bit
  2519                           ;	WRTD = 0x1, unprogrammed default
  2520                           ;	Storage Area Flash (SAF) Write Protection bit
  2521                           ;	WRTSAF = OFF, SAF is NOT write protected
  2522                           ;	Low Voltage Programming Enable bit
  2523                           ;	LVP = ON, Low Voltage programming enabled. MCLR/Vpp pin function is MCLR. MCLRE Config
      +                          uration bit is ignored
  2524  800A                     	org	32778
  2525  800A  3FFF               	dw	16383
  2526                           
  2527                           ;Config register CONFIG5 @ 0x800B
  2528                           ;	Program Flash Memory Code Protection bit
  2529                           ;	CP = OFF, Program Flash Memory code protection is disabled
  2530                           ;	Data EEPROM Code Protection bit
  2531                           ;	CPD = 0x1, unprogrammed default
  2532  800B                     	org	32779
  2533  800B  3FFF               	dw	16383

Data Sizes:
    Strings     0
    Constant    0
    Data        2
    BSS         5
    Persistent  32
    Stack       0

Auto Spaces:
    Space          Size  Autos    Used
    COMMON           14      7      14
    BANK0            80      0       0
    BANK1            80      0       0
    BANK2            80      0       0
    BANK3            80      0       0
    BANK4            80      0       0
    BANK5            80      0       0
    BANK6            80      0       0
    BANK7            80      0       0
    BANK8            80      0       0
    BANK9            80      0       0
    BANK10           80      0       0
    BANK11           80      0       0
    BANK12           48      0       0

Pointer List with Targets:

    None.

Critical Paths under _main in COMMON

    _main->_I2C_SLAVE_Init

Critical Paths under _I2C_Slave_Read in COMMON

    _I2C_Slave_Read->_processCommand

Critical Paths under _main in BANK0

    None.

Critical Paths under _I2C_Slave_Read in BANK0

    None.

Critical Paths under _main in BANK1

    None.

Critical Paths under _I2C_Slave_Read in BANK1

    None.

Critical Paths under _main in BANK2

    None.

Critical Paths under _I2C_Slave_Read in BANK2

    None.

Critical Paths under _main in BANK3

    None.

Critical Paths under _I2C_Slave_Read in BANK3

    None.

Critical Paths under _main in BANK4

    None.

Critical Paths under _I2C_Slave_Read in BANK4

    None.

Critical Paths under _main in BANK5

    None.

Critical Paths under _I2C_Slave_Read in BANK5

    None.

Critical Paths under _main in BANK6

    None.

Critical Paths under _I2C_Slave_Read in BANK6

    None.

Critical Paths under _main in BANK7

    None.

Critical Paths under _I2C_Slave_Read in BANK7

    None.

Critical Paths under _main in BANK8

    None.

Critical Paths under _I2C_Slave_Read in BANK8

    None.

Critical Paths under _main in BANK9

    None.

Critical Paths under _I2C_Slave_Read in BANK9

    None.

Critical Paths under _main in BANK10

    None.

Critical Paths under _I2C_Slave_Read in BANK10

    None.

Critical Paths under _main in BANK11

    None.

Critical Paths under _I2C_Slave_Read in BANK11

    None.

Critical Paths under _main in BANK12

    None.

Critical Paths under _I2C_Slave_Read in BANK12

    None.

Call Graph Tables:

 ---------------------------------------------------------------------------------
 (Depth) Function   	        Calls       Base Space   Used Autos Params    Refs
 ---------------------------------------------------------------------------------
 (0) _main                                                 1     1      0       0
                                              6 COMMON     1     1      0
                     _I2C_SLAVE_Init
              _pin_I2C_Configuration
              _pin_MUX_Configuration
 ---------------------------------------------------------------------------------
 (1) _pin_MUX_Configuration                                0     0      0       0
 ---------------------------------------------------------------------------------
 (1) _pin_I2C_Configuration                                0     0      0       0
 ---------------------------------------------------------------------------------
 (1) _I2C_SLAVE_Init                                       2     2      0       0
                                              5 COMMON     1     1      0
 ---------------------------------------------------------------------------------
 Estimated maximum stack depth 1
 ---------------------------------------------------------------------------------
 (Depth) Function   	        Calls       Base Space   Used Autos Params    Refs
 ---------------------------------------------------------------------------------
 (2) _I2C_Slave_Read                                       2     2      0      45
                                              3 COMMON     2     2      0
                     _processCommand
 ---------------------------------------------------------------------------------
 (3) _processCommand                                       3     3      0      45
                                              0 COMMON     3     3      0
 ---------------------------------------------------------------------------------
 Estimated maximum stack depth 3
 ---------------------------------------------------------------------------------

 Call Graph Graphs:

 _main (ROOT)
   _I2C_SLAVE_Init
   _pin_I2C_Configuration
   _pin_MUX_Configuration

 _I2C_Slave_Read (ROOT)
   _processCommand

 Address spaces:
Name               Size   Autos  Total    Cost      Usage
BIGRAM             3F0      0       0       0        0.0%
EEDATA              80      0       0       0        0.0%
NULL                 0      0       0       0        0.0%
CODE                 0      0       0       0        0.0%
BITCOMMON            E      0       0       1        0.0%
BITSFR0              0      0       0       1        0.0%
SFR0                 0      0       0       1        0.0%
COMMON               E      7       E       2      100.0%
BITSFR1              0      0       0       2        0.0%
SFR1                 0      0       0       2        0.0%
BITSFR2              0      0       0       3        0.0%
SFR2                 0      0       0       3        0.0%
STACK                0      0       0       3        0.0%
BITSFR3              0      0       0       4        0.0%
SFR3                 0      0       0       4        0.0%
ABS                  0      0       E       4        0.0%
BITBANK0            50      0       0       5        0.0%
BITSFR4              0      0       0       5        0.0%
SFR4                 0      0       0       5        0.0%
BANK0               50      0       0       6        0.0%
BITSFR5              0      0       0       6        0.0%
SFR5                 0      0       0       6        0.0%
BITBANK1            50      0       0       7        0.0%
BITSFR6              0      0       0       7        0.0%
SFR6                 0      0       0       7        0.0%
BANK1               50      0       0       8        0.0%
BITSFR7              0      0       0       8        0.0%
SFR7                 0      0       0       8        0.0%
BITBANK2            50      0       0       9        0.0%
BITSFR8              0      0       0       9        0.0%
SFR8                 0      0       0       9        0.0%
BANK2               50      0       0      10        0.0%
BITSFR9              0      0       0      10        0.0%
SFR9                 0      0       0      10        0.0%
BITBANK3            50      0       0      11        0.0%
BITSFR10             0      0       0      11        0.0%
SFR10                0      0       0      11        0.0%
BANK3               50      0       0      12        0.0%
BITSFR11             0      0       0      12        0.0%
SFR11                0      0       0      12        0.0%
BITBANK4            50      0       0      13        0.0%
BITSFR12             0      0       0      13        0.0%
SFR12                0      0       0      13        0.0%
BANK4               50      0       0      14        0.0%
BITSFR13             0      0       0      14        0.0%
SFR13                0      0       0      14        0.0%
BITBANK5            50      0       0      15        0.0%
BITSFR14             0      0       0      15        0.0%
SFR14                0      0       0      15        0.0%
BANK5               50      0       0      16        0.0%
BITSFR15             0      0       0      16        0.0%
SFR15                0      0       0      16        0.0%
BITBANK6            50      0       0      17        0.0%
BITSFR16             0      0       0      17        0.0%
SFR16                0      0       0      17        0.0%
BANK6               50      0       0      18        0.0%
BITSFR17             0      0       0      18        0.0%
SFR17                0      0       0      18        0.0%
BITBANK7            50      0       0      19        0.0%
BITSFR18             0      0       0      19        0.0%
SFR18                0      0       0      19        0.0%
BANK7               50      0       0      20        0.0%
BITSFR19             0      0       0      20        0.0%
SFR19                0      0       0      20        0.0%
BITBANK8            50      0       0      21        0.0%
BITSFR20             0      0       0      21        0.0%
SFR20                0      0       0      21        0.0%
BANK8               50      0       0      22        0.0%
BITSFR21             0      0       0      22        0.0%
SFR21                0      0       0      22        0.0%
BITBANK9            50      0       0      23        0.0%
BITSFR22             0      0       0      23        0.0%
SFR22                0      0       0      23        0.0%
BANK9               50      0       0      24        0.0%
BITSFR23             0      0       0      24        0.0%
SFR23                0      0       0      24        0.0%
BITBANK10           50      0       0      25        0.0%
BITSFR24             0      0       0      25        0.0%
SFR24                0      0       0      25        0.0%
BANK10              50      0       0      26        0.0%
BITSFR25             0      0       0      26        0.0%
SFR25                0      0       0      26        0.0%
BITBANK11           50      0       0      27        0.0%
BITSFR26             0      0       0      27        0.0%
SFR26                0      0       0      27        0.0%
BANK11              50      0       0      28        0.0%
BITSFR27             0      0       0      28        0.0%
SFR27                0      0       0      28        0.0%
BITBANK12           30      0       0      29        0.0%
BITSFR28             0      0       0      29        0.0%
SFR28                0      0       0      29        0.0%
BANK12              30      0       0      30        0.0%
BITSFR29             0      0       0      30        0.0%
SFR29                0      0       0      30        0.0%
BITSFR30             0      0       0      31        0.0%
SFR30                0      0       0      31        0.0%
DATA                 0      0       E      31        0.0%
BITSFR31             0      0       0      32        0.0%
SFR31                0      0       0      32        0.0%
BITSFR32             0      0       0      33        0.0%
SFR32                0      0       0      33        0.0%
BITSFR33             0      0       0      34        0.0%
SFR33                0      0       0      34        0.0%
BITSFR34             0      0       0      35        0.0%
SFR34                0      0       0      35        0.0%
BITSFR35             0      0       0      36        0.0%
SFR35                0      0       0      36        0.0%
BITSFR36             0      0       0      37        0.0%
SFR36                0      0       0      37        0.0%
BITSFR37             0      0       0      38        0.0%
SFR37                0      0       0      38        0.0%
BITSFR38             0      0       0      39        0.0%
SFR38                0      0       0      39        0.0%
BITSFR39             0      0       0      40        0.0%
SFR39                0      0       0      40        0.0%
BITSFR40             0      0       0      41        0.0%
SFR40                0      0       0      41        0.0%
BITSFR41             0      0       0      42        0.0%
SFR41                0      0       0      42        0.0%
BITSFR42             0      0       0      43        0.0%
SFR42                0      0       0      43        0.0%
BITSFR43             0      0       0      44        0.0%
SFR43                0      0       0      44        0.0%
BITSFR44             0      0       0      45        0.0%
SFR44                0      0       0      45        0.0%
BITSFR45             0      0       0      46        0.0%
SFR45                0      0       0      46        0.0%
BITSFR46             0      0       0      47        0.0%
SFR46                0      0       0      47        0.0%
BITSFR47             0      0       0      48        0.0%
SFR47                0      0       0      48        0.0%
BITSFR48             0      0       0      49        0.0%
SFR48                0      0       0      49        0.0%
BITSFR49             0      0       0      50        0.0%
SFR49                0      0       0      50        0.0%
BITSFR50             0      0       0      51        0.0%
SFR50                0      0       0      51        0.0%
BITSFR51             0      0       0      52        0.0%
SFR51                0      0       0      52        0.0%
BITSFR52             0      0       0      53        0.0%
SFR52                0      0       0      53        0.0%
BITSFR53             0      0       0      54        0.0%
SFR53                0      0       0      54        0.0%
BITSFR54             0      0       0      55        0.0%
SFR54                0      0       0      55        0.0%
BITSFR55             0      0       0      56        0.0%
SFR55                0      0       0      56        0.0%
BITSFR56             0      0       0      57        0.0%
SFR56                0      0       0      57        0.0%
BITSFR57             0      0       0      58        0.0%
SFR57                0      0       0      58        0.0%
BITSFR58             0      0       0      59        0.0%
SFR58                0      0       0      59        0.0%
BITSFR59             0      0       0      60        0.0%
SFR59                0      0       0      60        0.0%
BITSFR60             0      0       0      61        0.0%
SFR60                0      0       0      61        0.0%
BITSFR61             0      0       0      62        0.0%
SFR61                0      0       0      62        0.0%
BITSFR62             0      0       0      63        0.0%
SFR62                0      0       0      63        0.0%
BITSFR63             0      0       0      64        0.0%
SFR63                0      0       0      64        0.0%


Microchip Technology PIC Macro Assembler V2.36 build 20220127204148 
Symbol Table                                                                                   Tue Jun 24 13:20:09 2025

                          l113 00D4                            l166 00EF                            l169 0105  
                          l801 00F0                            l811 00C0                            l803 00B6  
                          l821 00C7                            l813 00C1                            l805 00B9  
                          l831 00CD                            l823 00C8                            l815 00C2  
                          l807 00BD                            l833 00CF                            l825 00CA  
                          l817 00C4                            l809 00BF                            l835 00D0  
                          l827 00CB                            l819 00C5                            l837 00D1  
                          l829 00CC                            l781 00D6                            l861 0070  
                          l839 00D3                            l791 00E4                            l783 00DB  
                          l871 007E                            l863 0073                            l793 00E8  
                          l785 00DC                            l873 0080                            l865 0077  
                          l795 00EB                            l787 00DD                            l779 00D5  
                          l875 0081                            l867 0079                            l859 006D  
                          l797 00ED                            l789 00DF                            l877 0084  
                          l869 007A                            l799 00EE                            l879 008A  
                          _GIE 005F                            wreg 0009                           _PEIE 005E  
                         i1l60 0054                           i1l62 0050                           i1l47 00B5  
                         i1l56 003E                           i1l57 002F                           i1l65 0058  
                         u1_20 009C                           u1_21 009B                           u2_25 009F  
                         u3_20 00B3                           u3_21 00B2                           u6_20 000B  
                         u6_21 000A                           u7_20 0011                           u7_21 0010  
                         u8_20 0015                           u8_21 0014                           u9_20 0023  
                         u9_21 0022                           _main 006D                           _sens 007D  
                         _temp 0077                           btemp 007E                           start 005A  
                        ?_main 0070                          i1l901 002E                          i1l911 0046  
                        i1l903 0033                          i1l841 0097                          i1l913 004D  
                        i1l905 0037                          i1l851 00B3                          i1l843 009C  
                        i1l915 004E                          i1l907 003B                          i1l845 00A6  
                        i1l917 004F                          i1l909 0042                          i1l847 00AB  
                        i1l849 00AD                          i1l881 0006                          i1l891 001D  
                        i1l883 000B                          i1l893 001E                          i1l885 0011  
                        i1l895 001F                          i1l887 0015                          i1l897 0023  
                        i1l889 001C                          i1l899 0027                          u10_20 0027  
                        u10_21 0026                          u11_20 0033                          u11_21 0032  
                        u12_20 0042                          u12_21 0041                          u13_20 0046  
                        u13_21 0045                          u14_20 0054                          u14_21 0053  
__end_of_pin_MUX_Configuration 0106                          status 0003                          wtemp0 007E  
__end_of_pin_I2C_Configuration 00F0                __initialization 005C                   __end_of_main 0096  
                       ??_main 0076                         _SSP2IF 048C               ??_processCommand 0070  
               _I2C_SLAVE_Init 00B6                   __pdataCOMMON 007C                   _dataReceived 007B  
      __end_of__initialization 0069                 __pcstackCOMMON 0070         __end_of_I2C_SLAVE_Init 00D5  
                   __pmaintext 006D                ?_I2C_SLAVE_Init 0070                     __pintentry 0004  
                      _SSP1ADD 078D                        _SSP2ADD 0797                        _PPSLOCK 1E0C  
                      _SSP2BUF 0796                        _SSP2MSK 0798         processCommand@dataTemp 0072  
                      __ptext1 00F0                        __ptext2 00D5                        __ptext3 00B6  
                      __ptext5 0096                      _T1CONbits 030E                      _T3CONbits 0314  
         end_of_initialization 0069          _pin_MUX_Configuration 00F0                    _DAC1CONbits 088C  
        _pin_I2C_Configuration 00D5                 _I2C_Slave_Read 0004                      _PORTAbits 000C  
                    _TRISAbits 0012                    _CM1CON0bits 080C                    _CM2CON0bits 0810  
       __end_of_I2C_Slave_Read 005A             I2C_SLAVE_Init@addr 0070                  __pidataCOMMON 0106  
          start_initialization 005C         ?_pin_MUX_Configuration 0070               ??_I2C_SLAVE_Init 0075  
              ?_I2C_Slave_Read 0070         ?_pin_I2C_Configuration 0070                    __pbssCOMMON 0077  
                    ___latbits 0002                       _DAC1DATL 088D                       _LATAbits 0018  
                     _PIE5bits 009B                    _commandeDAC 007A                       _SSP1CON1 0790  
                     _SSP1CON2 0791                       _SSP2CON1 079A                       _SSP2CON2 079B  
                     _SSP2CON3 079C                       _SSP1STAT 078F                       _SSP2STAT 0799  
                   _ADCON0bits 1D26                       _WPUAbits 1E8D              _writeRegister0x01 007C  
               _processCommand 0096                     _ANSELAbits 1E8C        ??_pin_MUX_Configuration 0075  
                 _SSP2CON1bits 079A                   _SSP2CON2bits 079B                   _SSP2CON3bits 079C  
             ??_I2C_Slave_Read 0073        ??_pin_I2C_Configuration 0075                     _RA0PPSbits 1D8C  
                   _RA1PPSbits 1D8D                       int$flags 007E         __end_of_processCommand 00B6  
                 _SSP2STATbits 0799        _enableWriteRegister0x01 0079                     _INTCONbits 000B  
                     intlevel1 0000                    _PPSLOCKbits 1E0C                ?_processCommand 0070  
                   _SSP2DATPPS 1E4B                     _SSP2CLKPPS 1E4A  
